
TZV_CAN.elf:     file format elf32-avr

Sections:
Idx Name          Size      VMA       LMA       File off  Algn
  0 .data         00000450  00800100  00002c08  00002cbc  2**0
                  CONTENTS, ALLOC, LOAD, DATA
  1 .text         00002c08  00000000  00000000  000000b4  2**1
                  CONTENTS, ALLOC, LOAD, READONLY, CODE
  2 .bss          0000006d  00800550  00800550  0000310c  2**0
                  ALLOC
  3 .eeprom       00000010  00810000  00810000  0000310c  2**0
                  CONTENTS, ALLOC, LOAD, DATA
  4 .comment      00000030  00000000  00000000  0000311c  2**0
                  CONTENTS, READONLY
  5 .note.gnu.avr.deviceinfo 00000040  00000000  00000000  0000314c  2**2
                  CONTENTS, READONLY
  6 .debug_aranges 00000228  00000000  00000000  00003190  2**3
                  CONTENTS, READONLY, DEBUGGING
  7 .debug_info   0000209d  00000000  00000000  000033b8  2**0
                  CONTENTS, READONLY, DEBUGGING
  8 .debug_abbrev 00000e38  00000000  00000000  00005455  2**0
                  CONTENTS, READONLY, DEBUGGING
  9 .debug_line   00001b24  00000000  00000000  0000628d  2**0
                  CONTENTS, READONLY, DEBUGGING
 10 .debug_frame  00000778  00000000  00000000  00007db4  2**2
                  CONTENTS, READONLY, DEBUGGING
 11 .debug_str    000010e0  00000000  00000000  0000852c  2**0
                  CONTENTS, READONLY, DEBUGGING
 12 .debug_loc    00000fd1  00000000  00000000  0000960c  2**0
                  CONTENTS, READONLY, DEBUGGING
 13 .debug_ranges 000001a8  00000000  00000000  0000a5dd  2**0
                  CONTENTS, READONLY, DEBUGGING

Disassembly of section .text:

00000000 <__vectors>:
       0:	4a c0       	rjmp	.+148    	; 0x96 <__ctors_end>
       2:	00 00       	nop
       4:	72 c0       	rjmp	.+228    	; 0xea <__bad_interrupt>
       6:	00 00       	nop
       8:	70 c0       	rjmp	.+224    	; 0xea <__bad_interrupt>
       a:	00 00       	nop
       c:	6e c0       	rjmp	.+220    	; 0xea <__bad_interrupt>
       e:	00 00       	nop
      10:	6c c0       	rjmp	.+216    	; 0xea <__bad_interrupt>
      12:	00 00       	nop
      14:	6a c0       	rjmp	.+212    	; 0xea <__bad_interrupt>
      16:	00 00       	nop
      18:	68 c0       	rjmp	.+208    	; 0xea <__bad_interrupt>
      1a:	00 00       	nop
      1c:	66 c0       	rjmp	.+204    	; 0xea <__bad_interrupt>
      1e:	00 00       	nop
      20:	64 c0       	rjmp	.+200    	; 0xea <__bad_interrupt>
      22:	00 00       	nop
      24:	62 c0       	rjmp	.+196    	; 0xea <__bad_interrupt>
      26:	00 00       	nop
      28:	60 c0       	rjmp	.+192    	; 0xea <__bad_interrupt>
      2a:	00 00       	nop
      2c:	5e c0       	rjmp	.+188    	; 0xea <__bad_interrupt>
      2e:	00 00       	nop
      30:	5c c0       	rjmp	.+184    	; 0xea <__bad_interrupt>
      32:	00 00       	nop
      34:	5a c0       	rjmp	.+180    	; 0xea <__bad_interrupt>
      36:	00 00       	nop
      38:	58 c0       	rjmp	.+176    	; 0xea <__bad_interrupt>
      3a:	00 00       	nop
      3c:	56 c0       	rjmp	.+172    	; 0xea <__bad_interrupt>
      3e:	00 00       	nop
      40:	54 c0       	rjmp	.+168    	; 0xea <__bad_interrupt>
      42:	00 00       	nop
      44:	52 c0       	rjmp	.+164    	; 0xea <__bad_interrupt>
      46:	00 00       	nop
      48:	0c 94 d6 0f 	jmp	0x1fac	; 0x1fac <__vector_18>
      4c:	4e c0       	rjmp	.+156    	; 0xea <__bad_interrupt>
      4e:	00 00       	nop
      50:	4c c0       	rjmp	.+152    	; 0xea <__bad_interrupt>
      52:	00 00       	nop
      54:	4a c0       	rjmp	.+148    	; 0xea <__bad_interrupt>
      56:	00 00       	nop
      58:	48 c0       	rjmp	.+144    	; 0xea <__bad_interrupt>
      5a:	00 00       	nop
      5c:	46 c0       	rjmp	.+140    	; 0xea <__bad_interrupt>
      5e:	00 00       	nop
      60:	44 c0       	rjmp	.+136    	; 0xea <__bad_interrupt>
      62:	00 00       	nop
      64:	42 c0       	rjmp	.+132    	; 0xea <__bad_interrupt>
      66:	00 00       	nop
      68:	40 c0       	rjmp	.+128    	; 0xea <__bad_interrupt>
      6a:	00 00       	nop
      6c:	3e c0       	rjmp	.+124    	; 0xea <__bad_interrupt>
      6e:	00 00       	nop
      70:	0c 94 08 0f 	jmp	0x1e10	; 0x1e10 <__vector_28>
      74:	3a c0       	rjmp	.+116    	; 0xea <__bad_interrupt>
      76:	00 00       	nop
      78:	38 c0       	rjmp	.+112    	; 0xea <__bad_interrupt>
      7a:	00 00       	nop
      7c:	36 c0       	rjmp	.+108    	; 0xea <__bad_interrupt>
      7e:	00 00       	nop
      80:	34 c0       	rjmp	.+104    	; 0xea <__bad_interrupt>
      82:	00 00       	nop
      84:	32 c0       	rjmp	.+100    	; 0xea <__bad_interrupt>
      86:	00 00       	nop
      88:	30 c0       	rjmp	.+96     	; 0xea <__bad_interrupt>
      8a:	00 00       	nop
      8c:	2e c0       	rjmp	.+92     	; 0xea <__bad_interrupt>
      8e:	00 00       	nop
      90:	2c c0       	rjmp	.+88     	; 0xea <__bad_interrupt>
	...

00000094 <__ctors_start>:
      94:	e9 12       	cpse	r14, r25

00000096 <__ctors_end>:
      96:	11 24       	eor	r1, r1
      98:	1f be       	out	0x3f, r1	; 63
      9a:	cf ef       	ldi	r28, 0xFF	; 255
      9c:	d0 e1       	ldi	r29, 0x10	; 16
      9e:	de bf       	out	0x3e, r29	; 62
      a0:	cd bf       	out	0x3d, r28	; 61

000000a2 <__do_copy_data>:
      a2:	15 e0       	ldi	r17, 0x05	; 5
      a4:	a0 e0       	ldi	r26, 0x00	; 0
      a6:	b1 e0       	ldi	r27, 0x01	; 1
      a8:	e8 e0       	ldi	r30, 0x08	; 8
      aa:	fc e2       	ldi	r31, 0x2C	; 44
      ac:	00 e0       	ldi	r16, 0x00	; 0
      ae:	0b bf       	out	0x3b, r16	; 59
      b0:	02 c0       	rjmp	.+4      	; 0xb6 <__do_copy_data+0x14>
      b2:	07 90       	elpm	r0, Z+
      b4:	0d 92       	st	X+, r0
      b6:	a0 35       	cpi	r26, 0x50	; 80
      b8:	b1 07       	cpc	r27, r17
      ba:	d9 f7       	brne	.-10     	; 0xb2 <__do_copy_data+0x10>

000000bc <__do_clear_bss>:
      bc:	25 e0       	ldi	r18, 0x05	; 5
      be:	a0 e5       	ldi	r26, 0x50	; 80
      c0:	b5 e0       	ldi	r27, 0x05	; 5
      c2:	01 c0       	rjmp	.+2      	; 0xc6 <.do_clear_bss_start>

000000c4 <.do_clear_bss_loop>:
      c4:	1d 92       	st	X+, r1

000000c6 <.do_clear_bss_start>:
      c6:	ad 3b       	cpi	r26, 0xBD	; 189
      c8:	b2 07       	cpc	r27, r18
      ca:	e1 f7       	brne	.-8      	; 0xc4 <.do_clear_bss_loop>

000000cc <__do_global_ctors>:
      cc:	10 e0       	ldi	r17, 0x00	; 0
      ce:	cb e4       	ldi	r28, 0x4B	; 75
      d0:	d0 e0       	ldi	r29, 0x00	; 0
      d2:	04 c0       	rjmp	.+8      	; 0xdc <__do_global_ctors+0x10>
      d4:	21 97       	sbiw	r28, 0x01	; 1
      d6:	fe 01       	movw	r30, r28
      d8:	0e 94 60 13 	call	0x26c0	; 0x26c0 <__tablejump2__>
      dc:	ca 34       	cpi	r28, 0x4A	; 74
      de:	d1 07       	cpc	r29, r17
      e0:	c9 f7       	brne	.-14     	; 0xd4 <__do_global_ctors+0x8>
      e2:	0e 94 54 12 	call	0x24a8	; 0x24a8 <main>
      e6:	0c 94 02 16 	jmp	0x2c04	; 0x2c04 <_exit>

000000ea <__bad_interrupt>:
      ea:	8a cf       	rjmp	.-236    	; 0x0 <__vectors>

000000ec <_Z8can_initv>:
	 selectMOb(n);
	 setAddressAndMask(0, 0, canMode);
	 resetCurrentMObStatus(modeRx);
	 resetInterrupts();
	 return 0;
 }
      ec:	cf 93       	push	r28
      ee:	df 93       	push	r29
      f0:	00 d0       	rcall	.+0      	; 0xf2 <_Z8can_initv+0x6>
      f2:	cd b7       	in	r28, 0x3d	; 61
      f4:	de b7       	in	r29, 0x3e	; 62
      f6:	19 82       	std	Y+1, r1	; 0x01
      f8:	1a 82       	std	Y+2, r1	; 0x02
      fa:	88 ed       	ldi	r24, 0xD8	; 216
      fc:	90 e0       	ldi	r25, 0x00	; 0
      fe:	28 ed       	ldi	r18, 0xD8	; 216
     100:	30 e0       	ldi	r19, 0x00	; 0
     102:	f9 01       	movw	r30, r18
     104:	20 81       	ld	r18, Z
     106:	21 60       	ori	r18, 0x01	; 1
     108:	fc 01       	movw	r30, r24
     10a:	20 83       	st	Z, r18
     10c:	88 ed       	ldi	r24, 0xD8	; 216
     10e:	90 e0       	ldi	r25, 0x00	; 0
     110:	fc 01       	movw	r30, r24
     112:	10 82       	st	Z, r1
     114:	00 00       	nop
     116:	89 ed       	ldi	r24, 0xD9	; 217
     118:	90 e0       	ldi	r25, 0x00	; 0
     11a:	fc 01       	movw	r30, r24
     11c:	80 81       	ld	r24, Z
     11e:	88 2f       	mov	r24, r24
     120:	90 e0       	ldi	r25, 0x00	; 0
     122:	84 70       	andi	r24, 0x04	; 4
     124:	99 27       	eor	r25, r25
     126:	21 e0       	ldi	r18, 0x01	; 1
     128:	89 2b       	or	r24, r25
     12a:	09 f4       	brne	.+2      	; 0x12e <_Z8can_initv+0x42>
     12c:	20 e0       	ldi	r18, 0x00	; 0
     12e:	22 23       	and	r18, r18
     130:	91 f7       	brne	.-28     	; 0x116 <_Z8can_initv+0x2a>
     132:	8a ed       	ldi	r24, 0xDA	; 218
     134:	90 e0       	ldi	r25, 0x00	; 0
     136:	fc 01       	movw	r30, r24
     138:	10 82       	st	Z, r1
     13a:	80 ee       	ldi	r24, 0xE0	; 224
     13c:	90 e0       	ldi	r25, 0x00	; 0
     13e:	fc 01       	movw	r30, r24
     140:	10 82       	st	Z, r1
     142:	81 ee       	ldi	r24, 0xE1	; 225
     144:	90 e0       	ldi	r25, 0x00	; 0
     146:	fc 01       	movw	r30, r24
     148:	10 82       	st	Z, r1
     14a:	19 82       	std	Y+1, r1	; 0x01
     14c:	3e c0       	rjmp	.+124    	; 0x1ca <_Z8can_initv+0xde>
     14e:	8d ee       	ldi	r24, 0xED	; 237
     150:	90 e0       	ldi	r25, 0x00	; 0
     152:	29 81       	ldd	r18, Y+1	; 0x01
     154:	22 95       	swap	r18
     156:	20 7f       	andi	r18, 0xF0	; 240
     158:	fc 01       	movw	r30, r24
     15a:	20 83       	st	Z, r18
     15c:	8f ee       	ldi	r24, 0xEF	; 239
     15e:	90 e0       	ldi	r25, 0x00	; 0
     160:	fc 01       	movw	r30, r24
     162:	10 82       	st	Z, r1
     164:	8e ee       	ldi	r24, 0xEE	; 238
     166:	90 e0       	ldi	r25, 0x00	; 0
     168:	fc 01       	movw	r30, r24
     16a:	10 82       	st	Z, r1
     16c:	83 ef       	ldi	r24, 0xF3	; 243
     16e:	90 e0       	ldi	r25, 0x00	; 0
     170:	fc 01       	movw	r30, r24
     172:	10 82       	st	Z, r1
     174:	82 ef       	ldi	r24, 0xF2	; 242
     176:	90 e0       	ldi	r25, 0x00	; 0
     178:	fc 01       	movw	r30, r24
     17a:	10 82       	st	Z, r1
     17c:	81 ef       	ldi	r24, 0xF1	; 241
     17e:	90 e0       	ldi	r25, 0x00	; 0
     180:	fc 01       	movw	r30, r24
     182:	10 82       	st	Z, r1
     184:	80 ef       	ldi	r24, 0xF0	; 240
     186:	90 e0       	ldi	r25, 0x00	; 0
     188:	fc 01       	movw	r30, r24
     18a:	10 82       	st	Z, r1
     18c:	87 ef       	ldi	r24, 0xF7	; 247
     18e:	90 e0       	ldi	r25, 0x00	; 0
     190:	fc 01       	movw	r30, r24
     192:	10 82       	st	Z, r1
     194:	86 ef       	ldi	r24, 0xF6	; 246
     196:	90 e0       	ldi	r25, 0x00	; 0
     198:	fc 01       	movw	r30, r24
     19a:	10 82       	st	Z, r1
     19c:	85 ef       	ldi	r24, 0xF5	; 245
     19e:	90 e0       	ldi	r25, 0x00	; 0
     1a0:	fc 01       	movw	r30, r24
     1a2:	10 82       	st	Z, r1
     1a4:	84 ef       	ldi	r24, 0xF4	; 244
     1a6:	90 e0       	ldi	r25, 0x00	; 0
     1a8:	fc 01       	movw	r30, r24
     1aa:	10 82       	st	Z, r1
     1ac:	1a 82       	std	Y+2, r1	; 0x02
     1ae:	07 c0       	rjmp	.+14     	; 0x1be <_Z8can_initv+0xd2>
     1b0:	8a ef       	ldi	r24, 0xFA	; 250
     1b2:	90 e0       	ldi	r25, 0x00	; 0
     1b4:	fc 01       	movw	r30, r24
     1b6:	10 82       	st	Z, r1
     1b8:	8a 81       	ldd	r24, Y+2	; 0x02
     1ba:	8f 5f       	subi	r24, 0xFF	; 255
     1bc:	8a 83       	std	Y+2, r24	; 0x02
     1be:	8a 81       	ldd	r24, Y+2	; 0x02
     1c0:	88 30       	cpi	r24, 0x08	; 8
     1c2:	b0 f3       	brcs	.-20     	; 0x1b0 <_Z8can_initv+0xc4>
     1c4:	89 81       	ldd	r24, Y+1	; 0x01
     1c6:	8f 5f       	subi	r24, 0xFF	; 255
     1c8:	89 83       	std	Y+1, r24	; 0x01
     1ca:	89 81       	ldd	r24, Y+1	; 0x01
     1cc:	8f 30       	cpi	r24, 0x0F	; 15
     1ce:	08 f4       	brcc	.+2      	; 0x1d2 <_Z8can_initv+0xe6>
     1d0:	be cf       	rjmp	.-132    	; 0x14e <_Z8can_initv+0x62>
     1d2:	82 ee       	ldi	r24, 0xE2	; 226
     1d4:	90 e0       	ldi	r25, 0x00	; 0
     1d6:	26 e0       	ldi	r18, 0x06	; 6
     1d8:	fc 01       	movw	r30, r24
     1da:	20 83       	st	Z, r18
     1dc:	83 ee       	ldi	r24, 0xE3	; 227
     1de:	90 e0       	ldi	r25, 0x00	; 0
     1e0:	2c e0       	ldi	r18, 0x0C	; 12
     1e2:	fc 01       	movw	r30, r24
     1e4:	20 83       	st	Z, r18
     1e6:	84 ee       	ldi	r24, 0xE4	; 228
     1e8:	90 e0       	ldi	r25, 0x00	; 0
     1ea:	27 e3       	ldi	r18, 0x37	; 55
     1ec:	fc 01       	movw	r30, r24
     1ee:	20 83       	st	Z, r18
     1f0:	8b ed       	ldi	r24, 0xDB	; 219
     1f2:	90 e0       	ldi	r25, 0x00	; 0
     1f4:	20 ea       	ldi	r18, 0xA0	; 160
     1f6:	fc 01       	movw	r30, r24
     1f8:	20 83       	st	Z, r18
     1fa:	8e ed       	ldi	r24, 0xDE	; 222
     1fc:	90 e0       	ldi	r25, 0x00	; 0
     1fe:	fc 01       	movw	r30, r24
     200:	11 82       	std	Z+1, r1	; 0x01
     202:	10 82       	st	Z, r1
     204:	8c ed       	ldi	r24, 0xDC	; 220
     206:	90 e0       	ldi	r25, 0x00	; 0
     208:	fc 01       	movw	r30, r24
     20a:	10 82       	st	Z, r1
     20c:	80 ee       	ldi	r24, 0xE0	; 224
     20e:	90 e0       	ldi	r25, 0x00	; 0
     210:	fc 01       	movw	r30, r24
     212:	11 82       	std	Z+1, r1	; 0x01
     214:	10 82       	st	Z, r1
     216:	88 ed       	ldi	r24, 0xD8	; 216
     218:	90 e0       	ldi	r25, 0x00	; 0
     21a:	22 e0       	ldi	r18, 0x02	; 2
     21c:	fc 01       	movw	r30, r24
     21e:	20 83       	st	Z, r18
     220:	00 00       	nop
     222:	89 ed       	ldi	r24, 0xD9	; 217
     224:	90 e0       	ldi	r25, 0x00	; 0
     226:	fc 01       	movw	r30, r24
     228:	80 81       	ld	r24, Z
     22a:	88 2f       	mov	r24, r24
     22c:	90 e0       	ldi	r25, 0x00	; 0
     22e:	84 70       	andi	r24, 0x04	; 4
     230:	99 27       	eor	r25, r25
     232:	21 e0       	ldi	r18, 0x01	; 1
     234:	89 2b       	or	r24, r25
     236:	09 f0       	breq	.+2      	; 0x23a <_Z8can_initv+0x14e>
     238:	20 e0       	ldi	r18, 0x00	; 0
     23a:	22 23       	and	r18, r18
     23c:	91 f7       	brne	.-28     	; 0x222 <_Z8can_initv+0x136>
     23e:	80 e0       	ldi	r24, 0x00	; 0
     240:	0f 90       	pop	r0
     242:	0f 90       	pop	r0
     244:	df 91       	pop	r29
     246:	cf 91       	pop	r28
     248:	08 95       	ret

0000024a <_Z11activateMObh>:
     24a:	cf 93       	push	r28
     24c:	df 93       	push	r29
     24e:	1f 92       	push	r1
     250:	cd b7       	in	r28, 0x3d	; 61
     252:	de b7       	in	r29, 0x3e	; 62
     254:	89 83       	std	Y+1, r24	; 0x01
     256:	89 81       	ldd	r24, Y+1	; 0x01
     258:	8f 30       	cpi	r24, 0x0F	; 15
     25a:	10 f0       	brcs	.+4      	; 0x260 <_Z11activateMObh+0x16>
     25c:	81 e0       	ldi	r24, 0x01	; 1
     25e:	2d c0       	rjmp	.+90     	; 0x2ba <_Z11activateMObh+0x70>
     260:	8c ed       	ldi	r24, 0xDC	; 220
     262:	90 e0       	ldi	r25, 0x00	; 0
     264:	2c ed       	ldi	r18, 0xDC	; 220
     266:	30 e0       	ldi	r19, 0x00	; 0
     268:	f9 01       	movw	r30, r18
     26a:	20 81       	ld	r18, Z
     26c:	31 81       	ldd	r19, Z+1	; 0x01
     26e:	49 81       	ldd	r20, Y+1	; 0x01
     270:	64 2f       	mov	r22, r20
     272:	70 e0       	ldi	r23, 0x00	; 0
     274:	41 e0       	ldi	r20, 0x01	; 1
     276:	50 e0       	ldi	r21, 0x00	; 0
     278:	02 c0       	rjmp	.+4      	; 0x27e <_Z11activateMObh+0x34>
     27a:	44 0f       	add	r20, r20
     27c:	55 1f       	adc	r21, r21
     27e:	6a 95       	dec	r22
     280:	e2 f7       	brpl	.-8      	; 0x27a <_Z11activateMObh+0x30>
     282:	24 2b       	or	r18, r20
     284:	35 2b       	or	r19, r21
     286:	fc 01       	movw	r30, r24
     288:	31 83       	std	Z+1, r19	; 0x01
     28a:	20 83       	st	Z, r18
     28c:	8e ed       	ldi	r24, 0xDE	; 222
     28e:	90 e0       	ldi	r25, 0x00	; 0
     290:	2e ed       	ldi	r18, 0xDE	; 222
     292:	30 e0       	ldi	r19, 0x00	; 0
     294:	f9 01       	movw	r30, r18
     296:	20 81       	ld	r18, Z
     298:	31 81       	ldd	r19, Z+1	; 0x01
     29a:	49 81       	ldd	r20, Y+1	; 0x01
     29c:	64 2f       	mov	r22, r20
     29e:	70 e0       	ldi	r23, 0x00	; 0
     2a0:	41 e0       	ldi	r20, 0x01	; 1
     2a2:	50 e0       	ldi	r21, 0x00	; 0
     2a4:	02 c0       	rjmp	.+4      	; 0x2aa <_Z11activateMObh+0x60>
     2a6:	44 0f       	add	r20, r20
     2a8:	55 1f       	adc	r21, r21
     2aa:	6a 95       	dec	r22
     2ac:	e2 f7       	brpl	.-8      	; 0x2a6 <_Z11activateMObh+0x5c>
     2ae:	24 2b       	or	r18, r20
     2b0:	35 2b       	or	r19, r21
     2b2:	fc 01       	movw	r30, r24
     2b4:	31 83       	std	Z+1, r19	; 0x01
     2b6:	20 83       	st	Z, r18
     2b8:	80 e0       	ldi	r24, 0x00	; 0
     2ba:	0f 90       	pop	r0
     2bc:	df 91       	pop	r29
     2be:	cf 91       	pop	r28
     2c0:	08 95       	ret

000002c2 <_Z9selectMObh>:
     2c2:	cf 93       	push	r28
     2c4:	df 93       	push	r29
     2c6:	1f 92       	push	r1
     2c8:	cd b7       	in	r28, 0x3d	; 61
     2ca:	de b7       	in	r29, 0x3e	; 62
     2cc:	89 83       	std	Y+1, r24	; 0x01
     2ce:	8d ee       	ldi	r24, 0xED	; 237
     2d0:	90 e0       	ldi	r25, 0x00	; 0
     2d2:	29 81       	ldd	r18, Y+1	; 0x01
     2d4:	22 95       	swap	r18
     2d6:	20 7f       	andi	r18, 0xF0	; 240
     2d8:	fc 01       	movw	r30, r24
     2da:	20 83       	st	Z, r18
     2dc:	80 e0       	ldi	r24, 0x00	; 0
     2de:	0f 90       	pop	r0
     2e0:	df 91       	pop	r29
     2e2:	cf 91       	pop	r28
     2e4:	08 95       	ret

000002e6 <_Z10setAddressm7CanMode>:
     2e6:	cf 93       	push	r28
     2e8:	df 93       	push	r29
     2ea:	00 d0       	rcall	.+0      	; 0x2ec <_Z10setAddressm7CanMode+0x6>
     2ec:	00 d0       	rcall	.+0      	; 0x2ee <_Z10setAddressm7CanMode+0x8>
     2ee:	1f 92       	push	r1
     2f0:	cd b7       	in	r28, 0x3d	; 61
     2f2:	de b7       	in	r29, 0x3e	; 62
     2f4:	69 83       	std	Y+1, r22	; 0x01
     2f6:	7a 83       	std	Y+2, r23	; 0x02
     2f8:	8b 83       	std	Y+3, r24	; 0x03
     2fa:	9c 83       	std	Y+4, r25	; 0x04
     2fc:	4d 83       	std	Y+5, r20	; 0x05
     2fe:	8d 81       	ldd	r24, Y+5	; 0x05
     300:	88 2f       	mov	r24, r24
     302:	90 e0       	ldi	r25, 0x00	; 0
     304:	00 97       	sbiw	r24, 0x00	; 0
     306:	19 f0       	breq	.+6      	; 0x30e <_Z10setAddressm7CanMode+0x28>
     308:	01 97       	sbiw	r24, 0x01	; 1
     30a:	29 f1       	breq	.+74     	; 0x356 <_Z10setAddressm7CanMode+0x70>
     30c:	69 c0       	rjmp	.+210    	; 0x3e0 <_Z10setAddressm7CanMode+0xfa>
     30e:	89 81       	ldd	r24, Y+1	; 0x01
     310:	9a 81       	ldd	r25, Y+2	; 0x02
     312:	ab 81       	ldd	r26, Y+3	; 0x03
     314:	bc 81       	ldd	r27, Y+4	; 0x04
     316:	81 15       	cp	r24, r1
     318:	98 40       	sbci	r25, 0x08	; 8
     31a:	a1 05       	cpc	r26, r1
     31c:	b1 05       	cpc	r27, r1
     31e:	10 f0       	brcs	.+4      	; 0x324 <_Z10setAddressm7CanMode+0x3e>
     320:	81 e0       	ldi	r24, 0x01	; 1
     322:	61 c0       	rjmp	.+194    	; 0x3e6 <_Z10setAddressm7CanMode+0x100>
     324:	23 ef       	ldi	r18, 0xF3	; 243
     326:	30 e0       	ldi	r19, 0x00	; 0
     328:	89 81       	ldd	r24, Y+1	; 0x01
     32a:	9a 81       	ldd	r25, Y+2	; 0x02
     32c:	ab 81       	ldd	r26, Y+3	; 0x03
     32e:	bc 81       	ldd	r27, Y+4	; 0x04
     330:	68 94       	set
     332:	12 f8       	bld	r1, 2
     334:	b6 95       	lsr	r27
     336:	a7 95       	ror	r26
     338:	97 95       	ror	r25
     33a:	87 95       	ror	r24
     33c:	16 94       	lsr	r1
     33e:	d1 f7       	brne	.-12     	; 0x334 <_Z10setAddressm7CanMode+0x4e>
     340:	f9 01       	movw	r30, r18
     342:	80 83       	st	Z, r24
     344:	82 ef       	ldi	r24, 0xF2	; 242
     346:	90 e0       	ldi	r25, 0x00	; 0
     348:	29 81       	ldd	r18, Y+1	; 0x01
     34a:	22 95       	swap	r18
     34c:	22 0f       	add	r18, r18
     34e:	20 7e       	andi	r18, 0xE0	; 224
     350:	fc 01       	movw	r30, r24
     352:	20 83       	st	Z, r18
     354:	47 c0       	rjmp	.+142    	; 0x3e4 <_Z10setAddressm7CanMode+0xfe>
     356:	89 81       	ldd	r24, Y+1	; 0x01
     358:	9a 81       	ldd	r25, Y+2	; 0x02
     35a:	ab 81       	ldd	r26, Y+3	; 0x03
     35c:	bc 81       	ldd	r27, Y+4	; 0x04
     35e:	00 97       	sbiw	r24, 0x00	; 0
     360:	a1 05       	cpc	r26, r1
     362:	b0 42       	sbci	r27, 0x20	; 32
     364:	10 f0       	brcs	.+4      	; 0x36a <_Z10setAddressm7CanMode+0x84>
     366:	82 e0       	ldi	r24, 0x02	; 2
     368:	3e c0       	rjmp	.+124    	; 0x3e6 <_Z10setAddressm7CanMode+0x100>
     36a:	23 ef       	ldi	r18, 0xF3	; 243
     36c:	30 e0       	ldi	r19, 0x00	; 0
     36e:	89 81       	ldd	r24, Y+1	; 0x01
     370:	9a 81       	ldd	r25, Y+2	; 0x02
     372:	ab 81       	ldd	r26, Y+3	; 0x03
     374:	bc 81       	ldd	r27, Y+4	; 0x04
     376:	07 2e       	mov	r0, r23
     378:	75 e1       	ldi	r23, 0x15	; 21
     37a:	b6 95       	lsr	r27
     37c:	a7 95       	ror	r26
     37e:	97 95       	ror	r25
     380:	87 95       	ror	r24
     382:	7a 95       	dec	r23
     384:	d1 f7       	brne	.-12     	; 0x37a <_Z10setAddressm7CanMode+0x94>
     386:	70 2d       	mov	r23, r0
     388:	f9 01       	movw	r30, r18
     38a:	80 83       	st	Z, r24
     38c:	22 ef       	ldi	r18, 0xF2	; 242
     38e:	30 e0       	ldi	r19, 0x00	; 0
     390:	89 81       	ldd	r24, Y+1	; 0x01
     392:	9a 81       	ldd	r25, Y+2	; 0x02
     394:	ab 81       	ldd	r26, Y+3	; 0x03
     396:	bc 81       	ldd	r27, Y+4	; 0x04
     398:	07 2e       	mov	r0, r23
     39a:	7d e0       	ldi	r23, 0x0D	; 13
     39c:	b6 95       	lsr	r27
     39e:	a7 95       	ror	r26
     3a0:	97 95       	ror	r25
     3a2:	87 95       	ror	r24
     3a4:	7a 95       	dec	r23
     3a6:	d1 f7       	brne	.-12     	; 0x39c <_Z10setAddressm7CanMode+0xb6>
     3a8:	70 2d       	mov	r23, r0
     3aa:	f9 01       	movw	r30, r18
     3ac:	80 83       	st	Z, r24
     3ae:	21 ef       	ldi	r18, 0xF1	; 241
     3b0:	30 e0       	ldi	r19, 0x00	; 0
     3b2:	89 81       	ldd	r24, Y+1	; 0x01
     3b4:	9a 81       	ldd	r25, Y+2	; 0x02
     3b6:	ab 81       	ldd	r26, Y+3	; 0x03
     3b8:	bc 81       	ldd	r27, Y+4	; 0x04
     3ba:	68 94       	set
     3bc:	14 f8       	bld	r1, 4
     3be:	b6 95       	lsr	r27
     3c0:	a7 95       	ror	r26
     3c2:	97 95       	ror	r25
     3c4:	87 95       	ror	r24
     3c6:	16 94       	lsr	r1
     3c8:	d1 f7       	brne	.-12     	; 0x3be <_Z10setAddressm7CanMode+0xd8>
     3ca:	f9 01       	movw	r30, r18
     3cc:	80 83       	st	Z, r24
     3ce:	80 ef       	ldi	r24, 0xF0	; 240
     3d0:	90 e0       	ldi	r25, 0x00	; 0
     3d2:	29 81       	ldd	r18, Y+1	; 0x01
     3d4:	22 0f       	add	r18, r18
     3d6:	22 0f       	add	r18, r18
     3d8:	22 0f       	add	r18, r18
     3da:	fc 01       	movw	r30, r24
     3dc:	20 83       	st	Z, r18
     3de:	02 c0       	rjmp	.+4      	; 0x3e4 <_Z10setAddressm7CanMode+0xfe>
     3e0:	83 e0       	ldi	r24, 0x03	; 3
     3e2:	01 c0       	rjmp	.+2      	; 0x3e6 <_Z10setAddressm7CanMode+0x100>
     3e4:	80 e0       	ldi	r24, 0x00	; 0
     3e6:	0f 90       	pop	r0
     3e8:	0f 90       	pop	r0
     3ea:	0f 90       	pop	r0
     3ec:	0f 90       	pop	r0
     3ee:	0f 90       	pop	r0
     3f0:	df 91       	pop	r29
     3f2:	cf 91       	pop	r28
     3f4:	08 95       	ret

000003f6 <_Z17setAddressAndMaskmm7CanMode>:
     3f6:	0f 93       	push	r16
     3f8:	cf 93       	push	r28
     3fa:	df 93       	push	r29
     3fc:	cd b7       	in	r28, 0x3d	; 61
     3fe:	de b7       	in	r29, 0x3e	; 62
     400:	2a 97       	sbiw	r28, 0x0a	; 10
     402:	0f b6       	in	r0, 0x3f	; 63
     404:	f8 94       	cli
     406:	de bf       	out	0x3e, r29	; 62
     408:	0f be       	out	0x3f, r0	; 63
     40a:	cd bf       	out	0x3d, r28	; 61
     40c:	6a 83       	std	Y+2, r22	; 0x02
     40e:	7b 83       	std	Y+3, r23	; 0x03
     410:	8c 83       	std	Y+4, r24	; 0x04
     412:	9d 83       	std	Y+5, r25	; 0x05
     414:	2e 83       	std	Y+6, r18	; 0x06
     416:	3f 83       	std	Y+7, r19	; 0x07
     418:	48 87       	std	Y+8, r20	; 0x08
     41a:	59 87       	std	Y+9, r21	; 0x09
     41c:	0a 87       	std	Y+10, r16	; 0x0a
     41e:	8a 81       	ldd	r24, Y+2	; 0x02
     420:	9b 81       	ldd	r25, Y+3	; 0x03
     422:	ac 81       	ldd	r26, Y+4	; 0x04
     424:	bd 81       	ldd	r27, Y+5	; 0x05
     426:	4a 85       	ldd	r20, Y+10	; 0x0a
     428:	bc 01       	movw	r22, r24
     42a:	cd 01       	movw	r24, r26
     42c:	5c df       	rcall	.-328    	; 0x2e6 <_Z10setAddressm7CanMode>
     42e:	89 83       	std	Y+1, r24	; 0x01
     430:	89 81       	ldd	r24, Y+1	; 0x01
     432:	88 23       	and	r24, r24
     434:	11 f0       	breq	.+4      	; 0x43a <__LOCK_REGION_LENGTH__+0x3a>
     436:	89 81       	ldd	r24, Y+1	; 0x01
     438:	74 c0       	rjmp	.+232    	; 0x522 <__LOCK_REGION_LENGTH__+0x122>
     43a:	8a 85       	ldd	r24, Y+10	; 0x0a
     43c:	88 2f       	mov	r24, r24
     43e:	90 e0       	ldi	r25, 0x00	; 0
     440:	00 97       	sbiw	r24, 0x00	; 0
     442:	19 f0       	breq	.+6      	; 0x44a <__LOCK_REGION_LENGTH__+0x4a>
     444:	01 97       	sbiw	r24, 0x01	; 1
     446:	29 f1       	breq	.+74     	; 0x492 <__LOCK_REGION_LENGTH__+0x92>
     448:	69 c0       	rjmp	.+210    	; 0x51c <__LOCK_REGION_LENGTH__+0x11c>
     44a:	8e 81       	ldd	r24, Y+6	; 0x06
     44c:	9f 81       	ldd	r25, Y+7	; 0x07
     44e:	a8 85       	ldd	r26, Y+8	; 0x08
     450:	b9 85       	ldd	r27, Y+9	; 0x09
     452:	81 15       	cp	r24, r1
     454:	98 40       	sbci	r25, 0x08	; 8
     456:	a1 05       	cpc	r26, r1
     458:	b1 05       	cpc	r27, r1
     45a:	10 f0       	brcs	.+4      	; 0x460 <__LOCK_REGION_LENGTH__+0x60>
     45c:	84 e0       	ldi	r24, 0x04	; 4
     45e:	61 c0       	rjmp	.+194    	; 0x522 <__LOCK_REGION_LENGTH__+0x122>
     460:	27 ef       	ldi	r18, 0xF7	; 247
     462:	30 e0       	ldi	r19, 0x00	; 0
     464:	8e 81       	ldd	r24, Y+6	; 0x06
     466:	9f 81       	ldd	r25, Y+7	; 0x07
     468:	a8 85       	ldd	r26, Y+8	; 0x08
     46a:	b9 85       	ldd	r27, Y+9	; 0x09
     46c:	68 94       	set
     46e:	12 f8       	bld	r1, 2
     470:	b6 95       	lsr	r27
     472:	a7 95       	ror	r26
     474:	97 95       	ror	r25
     476:	87 95       	ror	r24
     478:	16 94       	lsr	r1
     47a:	d1 f7       	brne	.-12     	; 0x470 <__LOCK_REGION_LENGTH__+0x70>
     47c:	f9 01       	movw	r30, r18
     47e:	80 83       	st	Z, r24
     480:	86 ef       	ldi	r24, 0xF6	; 246
     482:	90 e0       	ldi	r25, 0x00	; 0
     484:	2e 81       	ldd	r18, Y+6	; 0x06
     486:	22 95       	swap	r18
     488:	22 0f       	add	r18, r18
     48a:	20 7e       	andi	r18, 0xE0	; 224
     48c:	fc 01       	movw	r30, r24
     48e:	20 83       	st	Z, r18
     490:	47 c0       	rjmp	.+142    	; 0x520 <__LOCK_REGION_LENGTH__+0x120>
     492:	8e 81       	ldd	r24, Y+6	; 0x06
     494:	9f 81       	ldd	r25, Y+7	; 0x07
     496:	a8 85       	ldd	r26, Y+8	; 0x08
     498:	b9 85       	ldd	r27, Y+9	; 0x09
     49a:	00 97       	sbiw	r24, 0x00	; 0
     49c:	a1 05       	cpc	r26, r1
     49e:	b0 42       	sbci	r27, 0x20	; 32
     4a0:	10 f0       	brcs	.+4      	; 0x4a6 <__LOCK_REGION_LENGTH__+0xa6>
     4a2:	85 e0       	ldi	r24, 0x05	; 5
     4a4:	3e c0       	rjmp	.+124    	; 0x522 <__LOCK_REGION_LENGTH__+0x122>
     4a6:	27 ef       	ldi	r18, 0xF7	; 247
     4a8:	30 e0       	ldi	r19, 0x00	; 0
     4aa:	8e 81       	ldd	r24, Y+6	; 0x06
     4ac:	9f 81       	ldd	r25, Y+7	; 0x07
     4ae:	a8 85       	ldd	r26, Y+8	; 0x08
     4b0:	b9 85       	ldd	r27, Y+9	; 0x09
     4b2:	07 2e       	mov	r0, r23
     4b4:	75 e1       	ldi	r23, 0x15	; 21
     4b6:	b6 95       	lsr	r27
     4b8:	a7 95       	ror	r26
     4ba:	97 95       	ror	r25
     4bc:	87 95       	ror	r24
     4be:	7a 95       	dec	r23
     4c0:	d1 f7       	brne	.-12     	; 0x4b6 <__LOCK_REGION_LENGTH__+0xb6>
     4c2:	70 2d       	mov	r23, r0
     4c4:	f9 01       	movw	r30, r18
     4c6:	80 83       	st	Z, r24
     4c8:	26 ef       	ldi	r18, 0xF6	; 246
     4ca:	30 e0       	ldi	r19, 0x00	; 0
     4cc:	8e 81       	ldd	r24, Y+6	; 0x06
     4ce:	9f 81       	ldd	r25, Y+7	; 0x07
     4d0:	a8 85       	ldd	r26, Y+8	; 0x08
     4d2:	b9 85       	ldd	r27, Y+9	; 0x09
     4d4:	07 2e       	mov	r0, r23
     4d6:	7d e0       	ldi	r23, 0x0D	; 13
     4d8:	b6 95       	lsr	r27
     4da:	a7 95       	ror	r26
     4dc:	97 95       	ror	r25
     4de:	87 95       	ror	r24
     4e0:	7a 95       	dec	r23
     4e2:	d1 f7       	brne	.-12     	; 0x4d8 <__LOCK_REGION_LENGTH__+0xd8>
     4e4:	70 2d       	mov	r23, r0
     4e6:	f9 01       	movw	r30, r18
     4e8:	80 83       	st	Z, r24
     4ea:	25 ef       	ldi	r18, 0xF5	; 245
     4ec:	30 e0       	ldi	r19, 0x00	; 0
     4ee:	8e 81       	ldd	r24, Y+6	; 0x06
     4f0:	9f 81       	ldd	r25, Y+7	; 0x07
     4f2:	a8 85       	ldd	r26, Y+8	; 0x08
     4f4:	b9 85       	ldd	r27, Y+9	; 0x09
     4f6:	68 94       	set
     4f8:	14 f8       	bld	r1, 4
     4fa:	b6 95       	lsr	r27
     4fc:	a7 95       	ror	r26
     4fe:	97 95       	ror	r25
     500:	87 95       	ror	r24
     502:	16 94       	lsr	r1
     504:	d1 f7       	brne	.-12     	; 0x4fa <__LOCK_REGION_LENGTH__+0xfa>
     506:	f9 01       	movw	r30, r18
     508:	80 83       	st	Z, r24
     50a:	84 ef       	ldi	r24, 0xF4	; 244
     50c:	90 e0       	ldi	r25, 0x00	; 0
     50e:	2e 81       	ldd	r18, Y+6	; 0x06
     510:	22 0f       	add	r18, r18
     512:	22 0f       	add	r18, r18
     514:	22 0f       	add	r18, r18
     516:	fc 01       	movw	r30, r24
     518:	20 83       	st	Z, r18
     51a:	02 c0       	rjmp	.+4      	; 0x520 <__LOCK_REGION_LENGTH__+0x120>
     51c:	86 e0       	ldi	r24, 0x06	; 6
     51e:	01 c0       	rjmp	.+2      	; 0x522 <__LOCK_REGION_LENGTH__+0x122>
     520:	80 e0       	ldi	r24, 0x00	; 0
     522:	2a 96       	adiw	r28, 0x0a	; 10
     524:	0f b6       	in	r0, 0x3f	; 63
     526:	f8 94       	cli
     528:	de bf       	out	0x3e, r29	; 62
     52a:	0f be       	out	0x3f, r0	; 63
     52c:	cd bf       	out	0x3d, r28	; 61
     52e:	df 91       	pop	r29
     530:	cf 91       	pop	r28
     532:	0f 91       	pop	r16
     534:	08 95       	ret

00000536 <_Z15setExactAddressm7CanMode>:
     536:	0f 93       	push	r16
     538:	cf 93       	push	r28
     53a:	df 93       	push	r29
     53c:	00 d0       	rcall	.+0      	; 0x53e <_Z15setExactAddressm7CanMode+0x8>
     53e:	00 d0       	rcall	.+0      	; 0x540 <_Z15setExactAddressm7CanMode+0xa>
     540:	1f 92       	push	r1
     542:	cd b7       	in	r28, 0x3d	; 61
     544:	de b7       	in	r29, 0x3e	; 62
     546:	69 83       	std	Y+1, r22	; 0x01
     548:	7a 83       	std	Y+2, r23	; 0x02
     54a:	8b 83       	std	Y+3, r24	; 0x03
     54c:	9c 83       	std	Y+4, r25	; 0x04
     54e:	4d 83       	std	Y+5, r20	; 0x05
     550:	8d 81       	ldd	r24, Y+5	; 0x05
     552:	88 23       	and	r24, r24
     554:	69 f4       	brne	.+26     	; 0x570 <_Z15setExactAddressm7CanMode+0x3a>
     556:	89 81       	ldd	r24, Y+1	; 0x01
     558:	9a 81       	ldd	r25, Y+2	; 0x02
     55a:	ab 81       	ldd	r26, Y+3	; 0x03
     55c:	bc 81       	ldd	r27, Y+4	; 0x04
     55e:	00 e0       	ldi	r16, 0x00	; 0
     560:	2f ef       	ldi	r18, 0xFF	; 255
     562:	37 e0       	ldi	r19, 0x07	; 7
     564:	40 e0       	ldi	r20, 0x00	; 0
     566:	50 e0       	ldi	r21, 0x00	; 0
     568:	bc 01       	movw	r22, r24
     56a:	cd 01       	movw	r24, r26
     56c:	44 df       	rcall	.-376    	; 0x3f6 <_Z17setAddressAndMaskmm7CanMode>
     56e:	0c c0       	rjmp	.+24     	; 0x588 <_Z15setExactAddressm7CanMode+0x52>
     570:	89 81       	ldd	r24, Y+1	; 0x01
     572:	9a 81       	ldd	r25, Y+2	; 0x02
     574:	ab 81       	ldd	r26, Y+3	; 0x03
     576:	bc 81       	ldd	r27, Y+4	; 0x04
     578:	0d 81       	ldd	r16, Y+5	; 0x05
     57a:	2f ef       	ldi	r18, 0xFF	; 255
     57c:	3f ef       	ldi	r19, 0xFF	; 255
     57e:	4f ef       	ldi	r20, 0xFF	; 255
     580:	5f e1       	ldi	r21, 0x1F	; 31
     582:	bc 01       	movw	r22, r24
     584:	cd 01       	movw	r24, r26
     586:	37 df       	rcall	.-402    	; 0x3f6 <_Z17setAddressAndMaskmm7CanMode>
     588:	0f 90       	pop	r0
     58a:	0f 90       	pop	r0
     58c:	0f 90       	pop	r0
     58e:	0f 90       	pop	r0
     590:	0f 90       	pop	r0
     592:	df 91       	pop	r29
     594:	cf 91       	pop	r28
     596:	0f 91       	pop	r16
     598:	08 95       	ret

0000059a <_Z30setCurrentMOb_StatusModeLength7MobModsh7CanMode>:
     59a:	cf 93       	push	r28
     59c:	df 93       	push	r29
     59e:	00 d0       	rcall	.+0      	; 0x5a0 <_Z30setCurrentMOb_StatusModeLength7MobModsh7CanMode+0x6>
     5a0:	1f 92       	push	r1
     5a2:	cd b7       	in	r28, 0x3d	; 61
     5a4:	de b7       	in	r29, 0x3e	; 62
     5a6:	89 83       	std	Y+1, r24	; 0x01
     5a8:	6a 83       	std	Y+2, r22	; 0x02
     5aa:	4b 83       	std	Y+3, r20	; 0x03
     5ac:	8a 81       	ldd	r24, Y+2	; 0x02
     5ae:	89 30       	cpi	r24, 0x09	; 9
     5b0:	10 f0       	brcs	.+4      	; 0x5b6 <_Z30setCurrentMOb_StatusModeLength7MobModsh7CanMode+0x1c>
     5b2:	83 e0       	ldi	r24, 0x03	; 3
     5b4:	11 c0       	rjmp	.+34     	; 0x5d8 <_Z30setCurrentMOb_StatusModeLength7MobModsh7CanMode+0x3e>
     5b6:	8f ee       	ldi	r24, 0xEF	; 239
     5b8:	90 e0       	ldi	r25, 0x00	; 0
     5ba:	29 81       	ldd	r18, Y+1	; 0x01
     5bc:	32 2f       	mov	r19, r18
     5be:	32 95       	swap	r19
     5c0:	33 0f       	add	r19, r19
     5c2:	33 0f       	add	r19, r19
     5c4:	30 7c       	andi	r19, 0xC0	; 192
     5c6:	2b 81       	ldd	r18, Y+3	; 0x03
     5c8:	22 95       	swap	r18
     5ca:	20 7f       	andi	r18, 0xF0	; 240
     5cc:	32 0f       	add	r19, r18
     5ce:	2a 81       	ldd	r18, Y+2	; 0x02
     5d0:	23 0f       	add	r18, r19
     5d2:	fc 01       	movw	r30, r24
     5d4:	20 83       	st	Z, r18
     5d6:	80 e0       	ldi	r24, 0x00	; 0
     5d8:	0f 90       	pop	r0
     5da:	0f 90       	pop	r0
     5dc:	0f 90       	pop	r0
     5de:	df 91       	pop	r29
     5e0:	cf 91       	pop	r28
     5e2:	08 95       	ret

000005e4 <_Z30setCurrentMOb_StatusModeLength7MobModsh>:
     5e4:	cf 93       	push	r28
     5e6:	df 93       	push	r29
     5e8:	00 d0       	rcall	.+0      	; 0x5ea <_Z30setCurrentMOb_StatusModeLength7MobModsh+0x6>
     5ea:	cd b7       	in	r28, 0x3d	; 61
     5ec:	de b7       	in	r29, 0x3e	; 62
     5ee:	89 83       	std	Y+1, r24	; 0x01
     5f0:	6a 83       	std	Y+2, r22	; 0x02
     5f2:	8a 81       	ldd	r24, Y+2	; 0x02
     5f4:	89 30       	cpi	r24, 0x09	; 9
     5f6:	10 f0       	brcs	.+4      	; 0x5fc <_Z30setCurrentMOb_StatusModeLength7MobModsh+0x18>
     5f8:	83 e0       	ldi	r24, 0x03	; 3
     5fa:	0d c0       	rjmp	.+26     	; 0x616 <_Z30setCurrentMOb_StatusModeLength7MobModsh+0x32>
     5fc:	8f ee       	ldi	r24, 0xEF	; 239
     5fe:	90 e0       	ldi	r25, 0x00	; 0
     600:	29 81       	ldd	r18, Y+1	; 0x01
     602:	32 2f       	mov	r19, r18
     604:	32 95       	swap	r19
     606:	33 0f       	add	r19, r19
     608:	33 0f       	add	r19, r19
     60a:	30 7c       	andi	r19, 0xC0	; 192
     60c:	2a 81       	ldd	r18, Y+2	; 0x02
     60e:	23 0f       	add	r18, r19
     610:	fc 01       	movw	r30, r24
     612:	20 83       	st	Z, r18
     614:	80 e0       	ldi	r24, 0x00	; 0
     616:	0f 90       	pop	r0
     618:	0f 90       	pop	r0
     61a:	df 91       	pop	r29
     61c:	cf 91       	pop	r28
     61e:	08 95       	ret

00000620 <_Z21resetCurrentMObStatus7MobMods>:
     620:	cf 93       	push	r28
     622:	df 93       	push	r29
     624:	1f 92       	push	r1
     626:	cd b7       	in	r28, 0x3d	; 61
     628:	de b7       	in	r29, 0x3e	; 62
     62a:	89 83       	std	Y+1, r24	; 0x01
     62c:	8e ee       	ldi	r24, 0xEE	; 238
     62e:	90 e0       	ldi	r25, 0x00	; 0
     630:	fc 01       	movw	r30, r24
     632:	10 82       	st	Z, r1
     634:	8f ee       	ldi	r24, 0xEF	; 239
     636:	90 e0       	ldi	r25, 0x00	; 0
     638:	2f ee       	ldi	r18, 0xEF	; 239
     63a:	30 e0       	ldi	r19, 0x00	; 0
     63c:	f9 01       	movw	r30, r18
     63e:	20 81       	ld	r18, Z
     640:	2f 73       	andi	r18, 0x3F	; 63
     642:	fc 01       	movw	r30, r24
     644:	20 83       	st	Z, r18
     646:	8f ee       	ldi	r24, 0xEF	; 239
     648:	90 e0       	ldi	r25, 0x00	; 0
     64a:	2f ee       	ldi	r18, 0xEF	; 239
     64c:	30 e0       	ldi	r19, 0x00	; 0
     64e:	f9 01       	movw	r30, r18
     650:	20 81       	ld	r18, Z
     652:	42 2f       	mov	r20, r18
     654:	29 81       	ldd	r18, Y+1	; 0x01
     656:	22 2f       	mov	r18, r18
     658:	30 e0       	ldi	r19, 0x00	; 0
     65a:	00 24       	eor	r0, r0
     65c:	36 95       	lsr	r19
     65e:	27 95       	ror	r18
     660:	07 94       	ror	r0
     662:	36 95       	lsr	r19
     664:	27 95       	ror	r18
     666:	07 94       	ror	r0
     668:	32 2f       	mov	r19, r18
     66a:	20 2d       	mov	r18, r0
     66c:	24 2b       	or	r18, r20
     66e:	fc 01       	movw	r30, r24
     670:	20 83       	st	Z, r18
     672:	80 e0       	ldi	r24, 0x00	; 0
     674:	0f 90       	pop	r0
     676:	df 91       	pop	r29
     678:	cf 91       	pop	r28
     67a:	08 95       	ret

0000067c <_Z15resetInterruptsv>:
     67c:	cf 93       	push	r28
     67e:	df 93       	push	r29
     680:	cd b7       	in	r28, 0x3d	; 61
     682:	de b7       	in	r29, 0x3e	; 62
     684:	8a ed       	ldi	r24, 0xDA	; 218
     686:	90 e0       	ldi	r25, 0x00	; 0
     688:	2f ef       	ldi	r18, 0xFF	; 255
     68a:	fc 01       	movw	r30, r24
     68c:	20 83       	st	Z, r18
     68e:	df 91       	pop	r29
     690:	cf 91       	pop	r28
     692:	08 95       	ret

00000694 <_Z23get8BytesFromCurrentMObPh>:
 unsigned char get8BytesFromCurrentMOb(unsigned char* s){
     694:	cf 93       	push	r28
     696:	df 93       	push	r29
     698:	00 d0       	rcall	.+0      	; 0x69a <_Z23get8BytesFromCurrentMObPh+0x6>
     69a:	1f 92       	push	r1
     69c:	cd b7       	in	r28, 0x3d	; 61
     69e:	de b7       	in	r29, 0x3e	; 62
     6a0:	9b 83       	std	Y+3, r25	; 0x03
     6a2:	8a 83       	std	Y+2, r24	; 0x02
	 for(unsigned char i=0;i<8;i++){                    // Прочитать сообщение целиком
     6a4:	19 82       	std	Y+1, r1	; 0x01
     6a6:	10 c0       	rjmp	.+32     	; 0x6c8 <_Z23get8BytesFromCurrentMObPh+0x34>
		 s[i]=CANMSG;
     6a8:	89 81       	ldd	r24, Y+1	; 0x01
     6aa:	88 2f       	mov	r24, r24
     6ac:	90 e0       	ldi	r25, 0x00	; 0
     6ae:	2a 81       	ldd	r18, Y+2	; 0x02
     6b0:	3b 81       	ldd	r19, Y+3	; 0x03
     6b2:	82 0f       	add	r24, r18
     6b4:	93 1f       	adc	r25, r19
     6b6:	2a ef       	ldi	r18, 0xFA	; 250
     6b8:	30 e0       	ldi	r19, 0x00	; 0
     6ba:	f9 01       	movw	r30, r18
     6bc:	20 81       	ld	r18, Z
     6be:	fc 01       	movw	r30, r24
     6c0:	20 83       	st	Z, r18
	 resetCurrentMObStatus(modeRx);
	 resetInterrupts();
	 return 0;
 }
 unsigned char get8BytesFromCurrentMOb(unsigned char* s){
	 for(unsigned char i=0;i<8;i++){                    // Прочитать сообщение целиком
     6c2:	89 81       	ldd	r24, Y+1	; 0x01
     6c4:	8f 5f       	subi	r24, 0xFF	; 255
     6c6:	89 83       	std	Y+1, r24	; 0x01
     6c8:	89 81       	ldd	r24, Y+1	; 0x01
     6ca:	88 30       	cpi	r24, 0x08	; 8
     6cc:	68 f3       	brcs	.-38     	; 0x6a8 <_Z23get8BytesFromCurrentMObPh+0x14>
		 s[i]=CANMSG;
	 }
	 return 0;
     6ce:	80 e0       	ldi	r24, 0x00	; 0
 }
     6d0:	0f 90       	pop	r0
     6d2:	0f 90       	pop	r0
     6d4:	0f 90       	pop	r0
     6d6:	df 91       	pop	r29
     6d8:	cf 91       	pop	r28
     6da:	08 95       	ret

000006dc <_Z21transmitFewBytesByCANhPhh>:
 
 unsigned char transmitFewBytesByCAN(unsigned char mobNumber, unsigned char* data, unsigned char length){
     6dc:	cf 93       	push	r28
     6de:	df 93       	push	r29
     6e0:	00 d0       	rcall	.+0      	; 0x6e2 <_Z21transmitFewBytesByCANhPhh+0x6>
     6e2:	00 d0       	rcall	.+0      	; 0x6e4 <_Z21transmitFewBytesByCANhPhh+0x8>
     6e4:	1f 92       	push	r1
     6e6:	cd b7       	in	r28, 0x3d	; 61
     6e8:	de b7       	in	r29, 0x3e	; 62
     6ea:	8a 83       	std	Y+2, r24	; 0x02
     6ec:	7c 83       	std	Y+4, r23	; 0x04
     6ee:	6b 83       	std	Y+3, r22	; 0x03
     6f0:	4d 83       	std	Y+5, r20	; 0x05
	if (selectMOb(mobNumber) != 0) return 1;
     6f2:	8a 81       	ldd	r24, Y+2	; 0x02
     6f4:	e6 dd       	rcall	.-1076   	; 0x2c2 <_Z9selectMObh>
     6f6:	98 2f       	mov	r25, r24
     6f8:	81 e0       	ldi	r24, 0x01	; 1
     6fa:	99 23       	and	r25, r25
     6fc:	09 f4       	brne	.+2      	; 0x700 <_Z21transmitFewBytesByCANhPhh+0x24>
     6fe:	80 e0       	ldi	r24, 0x00	; 0
     700:	88 23       	and	r24, r24
     702:	11 f0       	breq	.+4      	; 0x708 <_Z21transmitFewBytesByCANhPhh+0x2c>
     704:	81 e0       	ldi	r24, 0x01	; 1
     706:	1f c0       	rjmp	.+62     	; 0x746 <_Z21transmitFewBytesByCANhPhh+0x6a>
	if (length > 8) return 2;
     708:	8d 81       	ldd	r24, Y+5	; 0x05
     70a:	89 30       	cpi	r24, 0x09	; 9
     70c:	10 f0       	brcs	.+4      	; 0x712 <_Z21transmitFewBytesByCANhPhh+0x36>
     70e:	82 e0       	ldi	r24, 0x02	; 2
     710:	1a c0       	rjmp	.+52     	; 0x746 <_Z21transmitFewBytesByCANhPhh+0x6a>
	for(unsigned char i = 0; i < length; i++){
     712:	19 82       	std	Y+1, r1	; 0x01
     714:	10 c0       	rjmp	.+32     	; 0x736 <_Z21transmitFewBytesByCANhPhh+0x5a>
		CANMSG = data[i];
     716:	8a ef       	ldi	r24, 0xFA	; 250
     718:	90 e0       	ldi	r25, 0x00	; 0
     71a:	29 81       	ldd	r18, Y+1	; 0x01
     71c:	22 2f       	mov	r18, r18
     71e:	30 e0       	ldi	r19, 0x00	; 0
     720:	4b 81       	ldd	r20, Y+3	; 0x03
     722:	5c 81       	ldd	r21, Y+4	; 0x04
     724:	24 0f       	add	r18, r20
     726:	35 1f       	adc	r19, r21
     728:	f9 01       	movw	r30, r18
     72a:	20 81       	ld	r18, Z
     72c:	fc 01       	movw	r30, r24
     72e:	20 83       	st	Z, r18
 }
 
 unsigned char transmitFewBytesByCAN(unsigned char mobNumber, unsigned char* data, unsigned char length){
	if (selectMOb(mobNumber) != 0) return 1;
	if (length > 8) return 2;
	for(unsigned char i = 0; i < length; i++){
     730:	89 81       	ldd	r24, Y+1	; 0x01
     732:	8f 5f       	subi	r24, 0xFF	; 255
     734:	89 83       	std	Y+1, r24	; 0x01
     736:	99 81       	ldd	r25, Y+1	; 0x01
     738:	8d 81       	ldd	r24, Y+5	; 0x05
     73a:	98 17       	cp	r25, r24
     73c:	60 f3       	brcs	.-40     	; 0x716 <_Z21transmitFewBytesByCANhPhh+0x3a>
		CANMSG = data[i];
	}
	setCurrentMOb_StatusModeLength(modeTx, length);
     73e:	6d 81       	ldd	r22, Y+5	; 0x05
     740:	81 e0       	ldi	r24, 0x01	; 1
     742:	50 df       	rcall	.-352    	; 0x5e4 <_Z30setCurrentMOb_StatusModeLength7MobModsh>
	return 0;
     744:	80 e0       	ldi	r24, 0x00	; 0
 }
     746:	0f 90       	pop	r0
     748:	0f 90       	pop	r0
     74a:	0f 90       	pop	r0
     74c:	0f 90       	pop	r0
     74e:	0f 90       	pop	r0
     750:	df 91       	pop	r29
     752:	cf 91       	pop	r28
     754:	08 95       	ret

00000756 <_Z19transmit8BytesByCANhPh>:
 unsigned char transmit8BytesByCAN(unsigned char n, unsigned char* s){
     756:	cf 93       	push	r28
     758:	df 93       	push	r29
     75a:	cd b7       	in	r28, 0x3d	; 61
     75c:	de b7       	in	r29, 0x3e	; 62
     75e:	27 97       	sbiw	r28, 0x07	; 7
     760:	0f b6       	in	r0, 0x3f	; 63
     762:	f8 94       	cli
     764:	de bf       	out	0x3e, r29	; 62
     766:	0f be       	out	0x3f, r0	; 63
     768:	cd bf       	out	0x3d, r28	; 61
     76a:	8d 83       	std	Y+5, r24	; 0x05
     76c:	7f 83       	std	Y+7, r23	; 0x07
     76e:	6e 83       	std	Y+6, r22	; 0x06
	 unsigned long step = 0;
     770:	19 82       	std	Y+1, r1	; 0x01
     772:	1a 82       	std	Y+2, r1	; 0x02
     774:	1b 82       	std	Y+3, r1	; 0x03
     776:	1c 82       	std	Y+4, r1	; 0x04
	 while ((CANGSTA & (1<<TXBSY)) && (step < MAX_TX_TIME)) step++;		//ждем разрешения на отправку, Каргин, проверить стабильность!
     778:	0b c0       	rjmp	.+22     	; 0x790 <_Z19transmit8BytesByCANhPh+0x3a>
     77a:	89 81       	ldd	r24, Y+1	; 0x01
     77c:	9a 81       	ldd	r25, Y+2	; 0x02
     77e:	ab 81       	ldd	r26, Y+3	; 0x03
     780:	bc 81       	ldd	r27, Y+4	; 0x04
     782:	01 96       	adiw	r24, 0x01	; 1
     784:	a1 1d       	adc	r26, r1
     786:	b1 1d       	adc	r27, r1
     788:	89 83       	std	Y+1, r24	; 0x01
     78a:	9a 83       	std	Y+2, r25	; 0x02
     78c:	ab 83       	std	Y+3, r26	; 0x03
     78e:	bc 83       	std	Y+4, r27	; 0x04
     790:	89 ed       	ldi	r24, 0xD9	; 217
     792:	90 e0       	ldi	r25, 0x00	; 0
     794:	fc 01       	movw	r30, r24
     796:	80 81       	ld	r24, Z
     798:	88 2f       	mov	r24, r24
     79a:	90 e0       	ldi	r25, 0x00	; 0
     79c:	80 71       	andi	r24, 0x10	; 16
     79e:	99 27       	eor	r25, r25
     7a0:	89 2b       	or	r24, r25
     7a2:	59 f0       	breq	.+22     	; 0x7ba <_Z19transmit8BytesByCANhPh+0x64>
     7a4:	89 81       	ldd	r24, Y+1	; 0x01
     7a6:	9a 81       	ldd	r25, Y+2	; 0x02
     7a8:	ab 81       	ldd	r26, Y+3	; 0x03
     7aa:	bc 81       	ldd	r27, Y+4	; 0x04
     7ac:	80 34       	cpi	r24, 0x40	; 64
     7ae:	96 40       	sbci	r25, 0x06	; 6
     7b0:	a1 05       	cpc	r26, r1
     7b2:	b1 05       	cpc	r27, r1
     7b4:	10 f4       	brcc	.+4      	; 0x7ba <_Z19transmit8BytesByCANhPh+0x64>
     7b6:	81 e0       	ldi	r24, 0x01	; 1
     7b8:	01 c0       	rjmp	.+2      	; 0x7bc <_Z19transmit8BytesByCANhPh+0x66>
     7ba:	80 e0       	ldi	r24, 0x00	; 0
     7bc:	88 23       	and	r24, r24
     7be:	e9 f6       	brne	.-70     	; 0x77a <_Z19transmit8BytesByCANhPh+0x24>
	 return transmitFewBytesByCAN(n, s, 8);
     7c0:	8e 81       	ldd	r24, Y+6	; 0x06
     7c2:	9f 81       	ldd	r25, Y+7	; 0x07
     7c4:	48 e0       	ldi	r20, 0x08	; 8
     7c6:	bc 01       	movw	r22, r24
     7c8:	8d 81       	ldd	r24, Y+5	; 0x05
     7ca:	88 df       	rcall	.-240    	; 0x6dc <_Z21transmitFewBytesByCANhPhh>
 }
     7cc:	27 96       	adiw	r28, 0x07	; 7
     7ce:	0f b6       	in	r0, 0x3f	; 63
     7d0:	f8 94       	cli
     7d2:	de bf       	out	0x3e, r29	; 62
     7d4:	0f be       	out	0x3f, r0	; 63
     7d6:	cd bf       	out	0x3d, r28	; 61
     7d8:	df 91       	pop	r29
     7da:	cf 91       	pop	r28
     7dc:	08 95       	ret

000007de <_Z9configMobmh7MobMods7CanMode>:

unsigned char configMob(unsigned long address, unsigned char numOfMOb, MobMods modeRxOrTx, CanMode canMode){
     7de:	0f 93       	push	r16
     7e0:	cf 93       	push	r28
     7e2:	df 93       	push	r29
     7e4:	cd b7       	in	r28, 0x3d	; 61
     7e6:	de b7       	in	r29, 0x3e	; 62
     7e8:	28 97       	sbiw	r28, 0x08	; 8
     7ea:	0f b6       	in	r0, 0x3f	; 63
     7ec:	f8 94       	cli
     7ee:	de bf       	out	0x3e, r29	; 62
     7f0:	0f be       	out	0x3f, r0	; 63
     7f2:	cd bf       	out	0x3d, r28	; 61
     7f4:	6a 83       	std	Y+2, r22	; 0x02
     7f6:	7b 83       	std	Y+3, r23	; 0x03
     7f8:	8c 83       	std	Y+4, r24	; 0x04
     7fa:	9d 83       	std	Y+5, r25	; 0x05
     7fc:	4e 83       	std	Y+6, r20	; 0x06
     7fe:	2f 83       	std	Y+7, r18	; 0x07
     800:	08 87       	std	Y+8, r16	; 0x08
	MobMods _mm;
	if (selectMOb(numOfMOb) != 0) return 1;
     802:	8e 81       	ldd	r24, Y+6	; 0x06
     804:	5e dd       	rcall	.-1348   	; 0x2c2 <_Z9selectMObh>
     806:	98 2f       	mov	r25, r24
     808:	81 e0       	ldi	r24, 0x01	; 1
     80a:	99 23       	and	r25, r25
     80c:	09 f4       	brne	.+2      	; 0x810 <_Z9configMobmh7MobMods7CanMode+0x32>
     80e:	80 e0       	ldi	r24, 0x00	; 0
     810:	88 23       	and	r24, r24
     812:	11 f0       	breq	.+4      	; 0x818 <_Z9configMobmh7MobMods7CanMode+0x3a>
     814:	81 e0       	ldi	r24, 0x01	; 1
     816:	23 c0       	rjmp	.+70     	; 0x85e <_Z9configMobmh7MobMods7CanMode+0x80>
	if(modeRxOrTx == modeRx) {
     818:	8f 81       	ldd	r24, Y+7	; 0x07
     81a:	82 30       	cpi	r24, 0x02	; 2
     81c:	29 f4       	brne	.+10     	; 0x828 <_Z9configMobmh7MobMods7CanMode+0x4a>
		activateMOb(numOfMOb);
     81e:	8e 81       	ldd	r24, Y+6	; 0x06
     820:	14 dd       	rcall	.-1496   	; 0x24a <_Z11activateMObh>
		_mm = modeRx;
     822:	82 e0       	ldi	r24, 0x02	; 2
     824:	89 83       	std	Y+1, r24	; 0x01
     826:	01 c0       	rjmp	.+2      	; 0x82a <_Z9configMobmh7MobMods7CanMode+0x4c>
	}else _mm = modeOff;
     828:	19 82       	std	Y+1, r1	; 0x01
	if (setExactAddress(address, canMode) != 0) return 2;
     82a:	8a 81       	ldd	r24, Y+2	; 0x02
     82c:	9b 81       	ldd	r25, Y+3	; 0x03
     82e:	ac 81       	ldd	r26, Y+4	; 0x04
     830:	bd 81       	ldd	r27, Y+5	; 0x05
     832:	48 85       	ldd	r20, Y+8	; 0x08
     834:	bc 01       	movw	r22, r24
     836:	cd 01       	movw	r24, r26
     838:	7e de       	rcall	.-772    	; 0x536 <_Z15setExactAddressm7CanMode>
     83a:	98 2f       	mov	r25, r24
     83c:	81 e0       	ldi	r24, 0x01	; 1
     83e:	99 23       	and	r25, r25
     840:	09 f4       	brne	.+2      	; 0x844 <_Z9configMobmh7MobMods7CanMode+0x66>
     842:	80 e0       	ldi	r24, 0x00	; 0
     844:	88 23       	and	r24, r24
     846:	11 f0       	breq	.+4      	; 0x84c <_Z9configMobmh7MobMods7CanMode+0x6e>
     848:	82 e0       	ldi	r24, 0x02	; 2
     84a:	09 c0       	rjmp	.+18     	; 0x85e <_Z9configMobmh7MobMods7CanMode+0x80>
	setCurrentMOb_StatusModeLength(_mm, 8, canMode);
     84c:	48 85       	ldd	r20, Y+8	; 0x08
     84e:	68 e0       	ldi	r22, 0x08	; 8
     850:	89 81       	ldd	r24, Y+1	; 0x01
     852:	a3 de       	rcall	.-698    	; 0x59a <_Z30setCurrentMOb_StatusModeLength7MobModsh7CanMode>
	if(modeRxOrTx == modeRx) resetInterrupts();
     854:	8f 81       	ldd	r24, Y+7	; 0x07
     856:	82 30       	cpi	r24, 0x02	; 2
     858:	09 f4       	brne	.+2      	; 0x85c <_Z9configMobmh7MobMods7CanMode+0x7e>
     85a:	10 df       	rcall	.-480    	; 0x67c <_Z15resetInterruptsv>
	return 0;
     85c:	80 e0       	ldi	r24, 0x00	; 0
}
     85e:	28 96       	adiw	r28, 0x08	; 8
     860:	0f b6       	in	r0, 0x3f	; 63
     862:	f8 94       	cli
     864:	de bf       	out	0x3e, r29	; 62
     866:	0f be       	out	0x3f, r0	; 63
     868:	cd bf       	out	0x3d, r28	; 61
     86a:	df 91       	pop	r29
     86c:	cf 91       	pop	r28
     86e:	0f 91       	pop	r16
     870:	08 95       	ret

00000872 <_Z14getTempFromADCij>:
	if (*varAddr == 0xFFFF)		//ячейка eeprom не записана
	{
		*varAddr = defaultValue;
		eeprom_update_word(eepVarAddr, *varAddr);
	}
}
     872:	cf 92       	push	r12
     874:	df 92       	push	r13
     876:	ef 92       	push	r14
     878:	ff 92       	push	r15
     87a:	cf 93       	push	r28
     87c:	df 93       	push	r29
     87e:	cd b7       	in	r28, 0x3d	; 61
     880:	de b7       	in	r29, 0x3e	; 62
     882:	2d 97       	sbiw	r28, 0x0d	; 13
     884:	0f b6       	in	r0, 0x3f	; 63
     886:	f8 94       	cli
     888:	de bf       	out	0x3e, r29	; 62
     88a:	0f be       	out	0x3f, r0	; 63
     88c:	cd bf       	out	0x3d, r28	; 61
     88e:	9b 87       	std	Y+11, r25	; 0x0b
     890:	8a 87       	std	Y+10, r24	; 0x0a
     892:	7d 87       	std	Y+13, r23	; 0x0d
     894:	6c 87       	std	Y+12, r22	; 0x0c
     896:	1b 82       	std	Y+3, r1	; 0x03
     898:	8a 85       	ldd	r24, Y+10	; 0x0a
     89a:	9b 85       	ldd	r25, Y+11	; 0x0b
     89c:	84 39       	cpi	r24, 0x94	; 148
     89e:	9f 40       	sbci	r25, 0x0F	; 15
     8a0:	49 f4       	brne	.+18     	; 0x8b4 <_Z14getTempFromADCij+0x42>
     8a2:	80 e0       	ldi	r24, 0x00	; 0
     8a4:	91 e0       	ldi	r25, 0x01	; 1
     8a6:	9a 83       	std	Y+2, r25	; 0x02
     8a8:	89 83       	std	Y+1, r24	; 0x01
     8aa:	88 e2       	ldi	r24, 0x28	; 40
     8ac:	90 e0       	ldi	r25, 0x00	; 0
     8ae:	81 50       	subi	r24, 0x01	; 1
     8b0:	8b 83       	std	Y+3, r24	; 0x03
     8b2:	29 c0       	rjmp	.+82     	; 0x906 <_Z14getTempFromADCij+0x94>
     8b4:	8a 85       	ldd	r24, Y+10	; 0x0a
     8b6:	9b 85       	ldd	r25, Y+11	; 0x0b
     8b8:	8c 3c       	cpi	r24, 0xCC	; 204
     8ba:	90 41       	sbci	r25, 0x10	; 16
     8bc:	49 f4       	brne	.+18     	; 0x8d0 <_Z14getTempFromADCij+0x5e>
     8be:	80 ea       	ldi	r24, 0xA0	; 160
     8c0:	91 e0       	ldi	r25, 0x01	; 1
     8c2:	9a 83       	std	Y+2, r25	; 0x02
     8c4:	89 83       	std	Y+1, r24	; 0x01
     8c6:	88 e2       	ldi	r24, 0x28	; 40
     8c8:	90 e0       	ldi	r25, 0x00	; 0
     8ca:	81 50       	subi	r24, 0x01	; 1
     8cc:	8b 83       	std	Y+3, r24	; 0x03
     8ce:	1b c0       	rjmp	.+54     	; 0x906 <_Z14getTempFromADCij+0x94>
     8d0:	8a 85       	ldd	r24, Y+10	; 0x0a
     8d2:	9b 85       	ldd	r25, Y+11	; 0x0b
     8d4:	8b 36       	cpi	r24, 0x6B	; 107
     8d6:	9d 40       	sbci	r25, 0x0D	; 13
     8d8:	49 f4       	brne	.+18     	; 0x8ec <_Z14getTempFromADCij+0x7a>
     8da:	80 e4       	ldi	r24, 0x40	; 64
     8dc:	92 e0       	ldi	r25, 0x02	; 2
     8de:	9a 83       	std	Y+2, r25	; 0x02
     8e0:	89 83       	std	Y+1, r24	; 0x01
     8e2:	81 ea       	ldi	r24, 0xA1	; 161
     8e4:	90 e0       	ldi	r25, 0x00	; 0
     8e6:	81 50       	subi	r24, 0x01	; 1
     8e8:	8b 83       	std	Y+3, r24	; 0x03
     8ea:	0d c0       	rjmp	.+26     	; 0x906 <_Z14getTempFromADCij+0x94>
     8ec:	8a 85       	ldd	r24, Y+10	; 0x0a
     8ee:	9b 85       	ldd	r25, Y+11	; 0x0b
     8f0:	88 3e       	cpi	r24, 0xE8	; 232
     8f2:	93 40       	sbci	r25, 0x03	; 3
     8f4:	41 f4       	brne	.+16     	; 0x906 <_Z14getTempFromADCij+0x94>
     8f6:	84 ec       	ldi	r24, 0xC4	; 196
     8f8:	94 e0       	ldi	r25, 0x04	; 4
     8fa:	9a 83       	std	Y+2, r25	; 0x02
     8fc:	89 83       	std	Y+1, r24	; 0x01
     8fe:	82 e2       	ldi	r24, 0x22	; 34
     900:	90 e0       	ldi	r25, 0x00	; 0
     902:	81 50       	subi	r24, 0x01	; 1
     904:	8b 83       	std	Y+3, r24	; 0x03
     906:	89 81       	ldd	r24, Y+1	; 0x01
     908:	9a 81       	ldd	r25, Y+2	; 0x02
     90a:	fc 01       	movw	r30, r24
     90c:	80 81       	ld	r24, Z
     90e:	91 81       	ldd	r25, Z+1	; 0x01
     910:	9c 01       	movw	r18, r24
     912:	8c 85       	ldd	r24, Y+12	; 0x0c
     914:	9d 85       	ldd	r25, Y+13	; 0x0d
     916:	28 17       	cp	r18, r24
     918:	39 07       	cpc	r19, r25
     91a:	28 f4       	brcc	.+10     	; 0x926 <_Z14getTempFromADCij+0xb4>
     91c:	80 e0       	ldi	r24, 0x00	; 0
     91e:	90 e0       	ldi	r25, 0x00	; 0
     920:	a0 e0       	ldi	r26, 0x00	; 0
     922:	b3 ec       	ldi	r27, 0xC3	; 195
     924:	1f c1       	rjmp	.+574    	; 0xb64 <_Z14getTempFromADCij+0x2f2>
     926:	8b 81       	ldd	r24, Y+3	; 0x03
     928:	88 2f       	mov	r24, r24
     92a:	90 e0       	ldi	r25, 0x00	; 0
     92c:	88 0f       	add	r24, r24
     92e:	99 1f       	adc	r25, r25
     930:	88 0f       	add	r24, r24
     932:	99 1f       	adc	r25, r25
     934:	29 81       	ldd	r18, Y+1	; 0x01
     936:	3a 81       	ldd	r19, Y+2	; 0x02
     938:	82 0f       	add	r24, r18
     93a:	93 1f       	adc	r25, r19
     93c:	fc 01       	movw	r30, r24
     93e:	80 81       	ld	r24, Z
     940:	91 81       	ldd	r25, Z+1	; 0x01
     942:	9c 01       	movw	r18, r24
     944:	8c 85       	ldd	r24, Y+12	; 0x0c
     946:	9d 85       	ldd	r25, Y+13	; 0x0d
     948:	82 17       	cp	r24, r18
     94a:	93 07       	cpc	r25, r19
     94c:	28 f4       	brcc	.+10     	; 0x958 <_Z14getTempFromADCij+0xe6>
     94e:	80 e0       	ldi	r24, 0x00	; 0
     950:	90 e0       	ldi	r25, 0x00	; 0
     952:	ae ef       	ldi	r26, 0xFE	; 254
     954:	b2 e4       	ldi	r27, 0x42	; 66
     956:	06 c1       	rjmp	.+524    	; 0xb64 <_Z14getTempFromADCij+0x2f2>
     958:	81 e0       	ldi	r24, 0x01	; 1
     95a:	90 e0       	ldi	r25, 0x00	; 0
     95c:	9d 83       	std	Y+5, r25	; 0x05
     95e:	8c 83       	std	Y+4, r24	; 0x04
     960:	f5 c0       	rjmp	.+490    	; 0xb4c <_Z14getTempFromADCij+0x2da>
     962:	8c 81       	ldd	r24, Y+4	; 0x04
     964:	9d 81       	ldd	r25, Y+5	; 0x05
     966:	88 0f       	add	r24, r24
     968:	99 1f       	adc	r25, r25
     96a:	88 0f       	add	r24, r24
     96c:	99 1f       	adc	r25, r25
     96e:	29 81       	ldd	r18, Y+1	; 0x01
     970:	3a 81       	ldd	r19, Y+2	; 0x02
     972:	82 0f       	add	r24, r18
     974:	93 1f       	adc	r25, r19
     976:	fc 01       	movw	r30, r24
     978:	80 81       	ld	r24, Z
     97a:	91 81       	ldd	r25, Z+1	; 0x01
     97c:	9c 01       	movw	r18, r24
     97e:	8c 85       	ldd	r24, Y+12	; 0x0c
     980:	9d 85       	ldd	r25, Y+13	; 0x0d
     982:	28 17       	cp	r18, r24
     984:	39 07       	cpc	r19, r25
     986:	c1 f4       	brne	.+48     	; 0x9b8 <_Z14getTempFromADCij+0x146>
     988:	8c 81       	ldd	r24, Y+4	; 0x04
     98a:	9d 81       	ldd	r25, Y+5	; 0x05
     98c:	88 0f       	add	r24, r24
     98e:	99 1f       	adc	r25, r25
     990:	88 0f       	add	r24, r24
     992:	99 1f       	adc	r25, r25
     994:	29 81       	ldd	r18, Y+1	; 0x01
     996:	3a 81       	ldd	r19, Y+2	; 0x02
     998:	82 0f       	add	r24, r18
     99a:	93 1f       	adc	r25, r19
     99c:	fc 01       	movw	r30, r24
     99e:	82 81       	ldd	r24, Z+2	; 0x02
     9a0:	93 81       	ldd	r25, Z+3	; 0x03
     9a2:	09 2e       	mov	r0, r25
     9a4:	00 0c       	add	r0, r0
     9a6:	aa 0b       	sbc	r26, r26
     9a8:	bb 0b       	sbc	r27, r27
     9aa:	bc 01       	movw	r22, r24
     9ac:	cd 01       	movw	r24, r26
     9ae:	0e 94 7c 14 	call	0x28f8	; 0x28f8 <__floatsisf>
     9b2:	dc 01       	movw	r26, r24
     9b4:	cb 01       	movw	r24, r22
     9b6:	d6 c0       	rjmp	.+428    	; 0xb64 <_Z14getTempFromADCij+0x2f2>
     9b8:	8c 81       	ldd	r24, Y+4	; 0x04
     9ba:	9d 81       	ldd	r25, Y+5	; 0x05
     9bc:	88 0f       	add	r24, r24
     9be:	99 1f       	adc	r25, r25
     9c0:	88 0f       	add	r24, r24
     9c2:	99 1f       	adc	r25, r25
     9c4:	29 81       	ldd	r18, Y+1	; 0x01
     9c6:	3a 81       	ldd	r19, Y+2	; 0x02
     9c8:	82 0f       	add	r24, r18
     9ca:	93 1f       	adc	r25, r19
     9cc:	fc 01       	movw	r30, r24
     9ce:	80 81       	ld	r24, Z
     9d0:	91 81       	ldd	r25, Z+1	; 0x01
     9d2:	9c 01       	movw	r18, r24
     9d4:	8c 85       	ldd	r24, Y+12	; 0x0c
     9d6:	9d 85       	ldd	r25, Y+13	; 0x0d
     9d8:	28 17       	cp	r18, r24
     9da:	39 07       	cpc	r19, r25
     9dc:	08 f0       	brcs	.+2      	; 0x9e0 <_Z14getTempFromADCij+0x16e>
     9de:	b1 c0       	rjmp	.+354    	; 0xb42 <_Z14getTempFromADCij+0x2d0>
     9e0:	8c 81       	ldd	r24, Y+4	; 0x04
     9e2:	9d 81       	ldd	r25, Y+5	; 0x05
     9e4:	81 50       	subi	r24, 0x01	; 1
     9e6:	90 4c       	sbci	r25, 0xC0	; 192
     9e8:	88 0f       	add	r24, r24
     9ea:	99 1f       	adc	r25, r25
     9ec:	88 0f       	add	r24, r24
     9ee:	99 1f       	adc	r25, r25
     9f0:	29 81       	ldd	r18, Y+1	; 0x01
     9f2:	3a 81       	ldd	r19, Y+2	; 0x02
     9f4:	82 0f       	add	r24, r18
     9f6:	93 1f       	adc	r25, r19
     9f8:	fc 01       	movw	r30, r24
     9fa:	80 81       	ld	r24, Z
     9fc:	91 81       	ldd	r25, Z+1	; 0x01
     9fe:	9c 01       	movw	r18, r24
     a00:	8c 85       	ldd	r24, Y+12	; 0x0c
     a02:	9d 85       	ldd	r25, Y+13	; 0x0d
     a04:	a9 01       	movw	r20, r18
     a06:	48 1b       	sub	r20, r24
     a08:	59 0b       	sbc	r21, r25
     a0a:	ca 01       	movw	r24, r20
     a0c:	cc 01       	movw	r24, r24
     a0e:	a0 e0       	ldi	r26, 0x00	; 0
     a10:	b0 e0       	ldi	r27, 0x00	; 0
     a12:	bc 01       	movw	r22, r24
     a14:	cd 01       	movw	r24, r26
     a16:	0e 94 7a 14 	call	0x28f4	; 0x28f4 <__floatunsisf>
     a1a:	6b 01       	movw	r12, r22
     a1c:	7c 01       	movw	r14, r24
     a1e:	8c 81       	ldd	r24, Y+4	; 0x04
     a20:	9d 81       	ldd	r25, Y+5	; 0x05
     a22:	81 50       	subi	r24, 0x01	; 1
     a24:	90 4c       	sbci	r25, 0xC0	; 192
     a26:	88 0f       	add	r24, r24
     a28:	99 1f       	adc	r25, r25
     a2a:	88 0f       	add	r24, r24
     a2c:	99 1f       	adc	r25, r25
     a2e:	29 81       	ldd	r18, Y+1	; 0x01
     a30:	3a 81       	ldd	r19, Y+2	; 0x02
     a32:	82 0f       	add	r24, r18
     a34:	93 1f       	adc	r25, r19
     a36:	fc 01       	movw	r30, r24
     a38:	20 81       	ld	r18, Z
     a3a:	31 81       	ldd	r19, Z+1	; 0x01
     a3c:	8c 81       	ldd	r24, Y+4	; 0x04
     a3e:	9d 81       	ldd	r25, Y+5	; 0x05
     a40:	88 0f       	add	r24, r24
     a42:	99 1f       	adc	r25, r25
     a44:	88 0f       	add	r24, r24
     a46:	99 1f       	adc	r25, r25
     a48:	49 81       	ldd	r20, Y+1	; 0x01
     a4a:	5a 81       	ldd	r21, Y+2	; 0x02
     a4c:	84 0f       	add	r24, r20
     a4e:	95 1f       	adc	r25, r21
     a50:	fc 01       	movw	r30, r24
     a52:	80 81       	ld	r24, Z
     a54:	91 81       	ldd	r25, Z+1	; 0x01
     a56:	a9 01       	movw	r20, r18
     a58:	48 1b       	sub	r20, r24
     a5a:	59 0b       	sbc	r21, r25
     a5c:	ca 01       	movw	r24, r20
     a5e:	09 2e       	mov	r0, r25
     a60:	00 0c       	add	r0, r0
     a62:	aa 0b       	sbc	r26, r26
     a64:	bb 0b       	sbc	r27, r27
     a66:	bc 01       	movw	r22, r24
     a68:	cd 01       	movw	r24, r26
     a6a:	0e 94 7c 14 	call	0x28f8	; 0x28f8 <__floatsisf>
     a6e:	dc 01       	movw	r26, r24
     a70:	cb 01       	movw	r24, r22
     a72:	9c 01       	movw	r18, r24
     a74:	ad 01       	movw	r20, r26
     a76:	c7 01       	movw	r24, r14
     a78:	b6 01       	movw	r22, r12
     a7a:	0e 94 e1 13 	call	0x27c2	; 0x27c2 <__divsf3>
     a7e:	dc 01       	movw	r26, r24
     a80:	cb 01       	movw	r24, r22
     a82:	8e 83       	std	Y+6, r24	; 0x06
     a84:	9f 83       	std	Y+7, r25	; 0x07
     a86:	a8 87       	std	Y+8, r26	; 0x08
     a88:	b9 87       	std	Y+9, r27	; 0x09
     a8a:	8c 81       	ldd	r24, Y+4	; 0x04
     a8c:	9d 81       	ldd	r25, Y+5	; 0x05
     a8e:	88 0f       	add	r24, r24
     a90:	99 1f       	adc	r25, r25
     a92:	88 0f       	add	r24, r24
     a94:	99 1f       	adc	r25, r25
     a96:	29 81       	ldd	r18, Y+1	; 0x01
     a98:	3a 81       	ldd	r19, Y+2	; 0x02
     a9a:	82 0f       	add	r24, r18
     a9c:	93 1f       	adc	r25, r19
     a9e:	fc 01       	movw	r30, r24
     aa0:	22 81       	ldd	r18, Z+2	; 0x02
     aa2:	33 81       	ldd	r19, Z+3	; 0x03
     aa4:	8c 81       	ldd	r24, Y+4	; 0x04
     aa6:	9d 81       	ldd	r25, Y+5	; 0x05
     aa8:	81 50       	subi	r24, 0x01	; 1
     aaa:	90 4c       	sbci	r25, 0xC0	; 192
     aac:	88 0f       	add	r24, r24
     aae:	99 1f       	adc	r25, r25
     ab0:	88 0f       	add	r24, r24
     ab2:	99 1f       	adc	r25, r25
     ab4:	49 81       	ldd	r20, Y+1	; 0x01
     ab6:	5a 81       	ldd	r21, Y+2	; 0x02
     ab8:	84 0f       	add	r24, r20
     aba:	95 1f       	adc	r25, r21
     abc:	fc 01       	movw	r30, r24
     abe:	82 81       	ldd	r24, Z+2	; 0x02
     ac0:	93 81       	ldd	r25, Z+3	; 0x03
     ac2:	a9 01       	movw	r20, r18
     ac4:	48 1b       	sub	r20, r24
     ac6:	59 0b       	sbc	r21, r25
     ac8:	ca 01       	movw	r24, r20
     aca:	09 2e       	mov	r0, r25
     acc:	00 0c       	add	r0, r0
     ace:	aa 0b       	sbc	r26, r26
     ad0:	bb 0b       	sbc	r27, r27
     ad2:	bc 01       	movw	r22, r24
     ad4:	cd 01       	movw	r24, r26
     ad6:	0e 94 7c 14 	call	0x28f8	; 0x28f8 <__floatsisf>
     ada:	dc 01       	movw	r26, r24
     adc:	cb 01       	movw	r24, r22
     ade:	9c 01       	movw	r18, r24
     ae0:	ad 01       	movw	r20, r26
     ae2:	6e 81       	ldd	r22, Y+6	; 0x06
     ae4:	7f 81       	ldd	r23, Y+7	; 0x07
     ae6:	88 85       	ldd	r24, Y+8	; 0x08
     ae8:	99 85       	ldd	r25, Y+9	; 0x09
     aea:	0e 94 30 15 	call	0x2a60	; 0x2a60 <__mulsf3>
     aee:	dc 01       	movw	r26, r24
     af0:	cb 01       	movw	r24, r22
     af2:	8e 83       	std	Y+6, r24	; 0x06
     af4:	9f 83       	std	Y+7, r25	; 0x07
     af6:	a8 87       	std	Y+8, r26	; 0x08
     af8:	b9 87       	std	Y+9, r27	; 0x09
     afa:	8c 81       	ldd	r24, Y+4	; 0x04
     afc:	9d 81       	ldd	r25, Y+5	; 0x05
     afe:	81 50       	subi	r24, 0x01	; 1
     b00:	90 4c       	sbci	r25, 0xC0	; 192
     b02:	88 0f       	add	r24, r24
     b04:	99 1f       	adc	r25, r25
     b06:	88 0f       	add	r24, r24
     b08:	99 1f       	adc	r25, r25
     b0a:	29 81       	ldd	r18, Y+1	; 0x01
     b0c:	3a 81       	ldd	r19, Y+2	; 0x02
     b0e:	82 0f       	add	r24, r18
     b10:	93 1f       	adc	r25, r19
     b12:	fc 01       	movw	r30, r24
     b14:	82 81       	ldd	r24, Z+2	; 0x02
     b16:	93 81       	ldd	r25, Z+3	; 0x03
     b18:	09 2e       	mov	r0, r25
     b1a:	00 0c       	add	r0, r0
     b1c:	aa 0b       	sbc	r26, r26
     b1e:	bb 0b       	sbc	r27, r27
     b20:	bc 01       	movw	r22, r24
     b22:	cd 01       	movw	r24, r26
     b24:	0e 94 7c 14 	call	0x28f8	; 0x28f8 <__floatsisf>
     b28:	dc 01       	movw	r26, r24
     b2a:	cb 01       	movw	r24, r22
     b2c:	2e 81       	ldd	r18, Y+6	; 0x06
     b2e:	3f 81       	ldd	r19, Y+7	; 0x07
     b30:	48 85       	ldd	r20, Y+8	; 0x08
     b32:	59 85       	ldd	r21, Y+9	; 0x09
     b34:	bc 01       	movw	r22, r24
     b36:	cd 01       	movw	r24, r26
     b38:	0e 94 79 13 	call	0x26f2	; 0x26f2 <__addsf3>
     b3c:	dc 01       	movw	r26, r24
     b3e:	cb 01       	movw	r24, r22
     b40:	11 c0       	rjmp	.+34     	; 0xb64 <_Z14getTempFromADCij+0x2f2>
     b42:	8c 81       	ldd	r24, Y+4	; 0x04
     b44:	9d 81       	ldd	r25, Y+5	; 0x05
     b46:	01 96       	adiw	r24, 0x01	; 1
     b48:	9d 83       	std	Y+5, r25	; 0x05
     b4a:	8c 83       	std	Y+4, r24	; 0x04
     b4c:	8b 81       	ldd	r24, Y+3	; 0x03
     b4e:	28 2f       	mov	r18, r24
     b50:	30 e0       	ldi	r19, 0x00	; 0
     b52:	8c 81       	ldd	r24, Y+4	; 0x04
     b54:	9d 81       	ldd	r25, Y+5	; 0x05
     b56:	28 17       	cp	r18, r24
     b58:	39 07       	cpc	r19, r25
     b5a:	0c f0       	brlt	.+2      	; 0xb5e <_Z14getTempFromADCij+0x2ec>
     b5c:	02 cf       	rjmp	.-508    	; 0x962 <_Z14getTempFromADCij+0xf0>
     b5e:	80 e0       	ldi	r24, 0x00	; 0
     b60:	90 e0       	ldi	r25, 0x00	; 0
     b62:	dc 01       	movw	r26, r24
     b64:	bc 01       	movw	r22, r24
     b66:	cd 01       	movw	r24, r26
     b68:	2d 96       	adiw	r28, 0x0d	; 13
     b6a:	0f b6       	in	r0, 0x3f	; 63
     b6c:	f8 94       	cli
     b6e:	de bf       	out	0x3e, r29	; 62
     b70:	0f be       	out	0x3f, r0	; 63
     b72:	cd bf       	out	0x3d, r28	; 61
     b74:	df 91       	pop	r29
     b76:	cf 91       	pop	r28
     b78:	ff 90       	pop	r15
     b7a:	ef 90       	pop	r14
     b7c:	df 90       	pop	r13
     b7e:	cf 90       	pop	r12
     b80:	08 95       	ret

00000b82 <_Z21getRoundedTempFromADCij>:
     b82:	cf 93       	push	r28
     b84:	df 93       	push	r29
     b86:	cd b7       	in	r28, 0x3d	; 61
     b88:	de b7       	in	r29, 0x3e	; 62
     b8a:	28 97       	sbiw	r28, 0x08	; 8
     b8c:	0f b6       	in	r0, 0x3f	; 63
     b8e:	f8 94       	cli
     b90:	de bf       	out	0x3e, r29	; 62
     b92:	0f be       	out	0x3f, r0	; 63
     b94:	cd bf       	out	0x3d, r28	; 61
     b96:	9e 83       	std	Y+6, r25	; 0x06
     b98:	8d 83       	std	Y+5, r24	; 0x05
     b9a:	78 87       	std	Y+8, r23	; 0x08
     b9c:	6f 83       	std	Y+7, r22	; 0x07
     b9e:	2f 81       	ldd	r18, Y+7	; 0x07
     ba0:	38 85       	ldd	r19, Y+8	; 0x08
     ba2:	8d 81       	ldd	r24, Y+5	; 0x05
     ba4:	9e 81       	ldd	r25, Y+6	; 0x06
     ba6:	b9 01       	movw	r22, r18
     ba8:	64 de       	rcall	.-824    	; 0x872 <_Z14getTempFromADCij>
     baa:	dc 01       	movw	r26, r24
     bac:	cb 01       	movw	r24, r22
     bae:	89 83       	std	Y+1, r24	; 0x01
     bb0:	9a 83       	std	Y+2, r25	; 0x02
     bb2:	ab 83       	std	Y+3, r26	; 0x03
     bb4:	bc 83       	std	Y+4, r27	; 0x04
     bb6:	20 e0       	ldi	r18, 0x00	; 0
     bb8:	30 e0       	ldi	r19, 0x00	; 0
     bba:	4e ef       	ldi	r20, 0xFE	; 254
     bbc:	52 e4       	ldi	r21, 0x42	; 66
     bbe:	69 81       	ldd	r22, Y+1	; 0x01
     bc0:	7a 81       	ldd	r23, Y+2	; 0x02
     bc2:	8b 81       	ldd	r24, Y+3	; 0x03
     bc4:	9c 81       	ldd	r25, Y+4	; 0x04
     bc6:	0e 94 2c 15 	call	0x2a58	; 0x2a58 <__gesf2>
     bca:	88 23       	and	r24, r24
     bcc:	14 f0       	brlt	.+4      	; 0xbd2 <_Z21getRoundedTempFromADCij+0x50>
     bce:	8f e7       	ldi	r24, 0x7F	; 127
     bd0:	1e c0       	rjmp	.+60     	; 0xc0e <_Z21getRoundedTempFromADCij+0x8c>
     bd2:	20 e0       	ldi	r18, 0x00	; 0
     bd4:	30 e0       	ldi	r19, 0x00	; 0
     bd6:	40 e0       	ldi	r20, 0x00	; 0
     bd8:	53 ec       	ldi	r21, 0xC3	; 195
     bda:	69 81       	ldd	r22, Y+1	; 0x01
     bdc:	7a 81       	ldd	r23, Y+2	; 0x02
     bde:	8b 81       	ldd	r24, Y+3	; 0x03
     be0:	9c 81       	ldd	r25, Y+4	; 0x04
     be2:	0e 94 dd 13 	call	0x27ba	; 0x27ba <__cmpsf2>
     be6:	18 16       	cp	r1, r24
     be8:	14 f0       	brlt	.+4      	; 0xbee <_Z21getRoundedTempFromADCij+0x6c>
     bea:	80 e8       	ldi	r24, 0x80	; 128
     bec:	10 c0       	rjmp	.+32     	; 0xc0e <_Z21getRoundedTempFromADCij+0x8c>
     bee:	89 81       	ldd	r24, Y+1	; 0x01
     bf0:	9a 81       	ldd	r25, Y+2	; 0x02
     bf2:	ab 81       	ldd	r26, Y+3	; 0x03
     bf4:	bc 81       	ldd	r27, Y+4	; 0x04
     bf6:	bc 01       	movw	r22, r24
     bf8:	cd 01       	movw	r24, r26
     bfa:	0e 94 93 15 	call	0x2b26	; 0x2b26 <round>
     bfe:	dc 01       	movw	r26, r24
     c00:	cb 01       	movw	r24, r22
     c02:	bc 01       	movw	r22, r24
     c04:	cd 01       	movw	r24, r26
     c06:	0e 94 49 14 	call	0x2892	; 0x2892 <__fixsfsi>
     c0a:	dc 01       	movw	r26, r24
     c0c:	cb 01       	movw	r24, r22
     c0e:	28 96       	adiw	r28, 0x08	; 8
     c10:	0f b6       	in	r0, 0x3f	; 63
     c12:	f8 94       	cli
     c14:	de bf       	out	0x3e, r29	; 62
     c16:	0f be       	out	0x3f, r0	; 63
     c18:	cd bf       	out	0x3d, r28	; 61
     c1a:	df 91       	pop	r29
     c1c:	cf 91       	pop	r28
     c1e:	08 95       	ret

00000c20 <_ZN6ErrorsC1Ev>:
     c20:	cf 93       	push	r28
     c22:	df 93       	push	r29
     c24:	00 d0       	rcall	.+0      	; 0xc26 <_ZN6ErrorsC1Ev+0x6>
     c26:	cd b7       	in	r28, 0x3d	; 61
     c28:	de b7       	in	r29, 0x3e	; 62
     c2a:	9a 83       	std	Y+2, r25	; 0x02
     c2c:	89 83       	std	Y+1, r24	; 0x01
     c2e:	89 81       	ldd	r24, Y+1	; 0x01
     c30:	9a 81       	ldd	r25, Y+2	; 0x02
     c32:	fc 01       	movw	r30, r24
     c34:	10 82       	st	Z, r1
     c36:	89 81       	ldd	r24, Y+1	; 0x01
     c38:	9a 81       	ldd	r25, Y+2	; 0x02
     c3a:	2a e0       	ldi	r18, 0x0A	; 10
     c3c:	fc 01       	movw	r30, r24
     c3e:	21 83       	std	Z+1, r18	; 0x01
     c40:	89 81       	ldd	r24, Y+1	; 0x01
     c42:	9a 81       	ldd	r25, Y+2	; 0x02
     c44:	fc 01       	movw	r30, r24
     c46:	12 82       	std	Z+2, r1	; 0x02
     c48:	89 81       	ldd	r24, Y+1	; 0x01
     c4a:	9a 81       	ldd	r25, Y+2	; 0x02
     c4c:	fc 01       	movw	r30, r24
     c4e:	13 82       	std	Z+3, r1	; 0x03
     c50:	89 81       	ldd	r24, Y+1	; 0x01
     c52:	9a 81       	ldd	r25, Y+2	; 0x02
     c54:	fc 01       	movw	r30, r24
     c56:	14 82       	std	Z+4, r1	; 0x04
     c58:	0f 90       	pop	r0
     c5a:	0f 90       	pop	r0
     c5c:	df 91       	pop	r29
     c5e:	cf 91       	pop	r28
     c60:	08 95       	ret

00000c62 <_ZN6ErrorsC1EPbbPhh>:
     c62:	0f 93       	push	r16
     c64:	cf 93       	push	r28
     c66:	df 93       	push	r29
     c68:	cd b7       	in	r28, 0x3d	; 61
     c6a:	de b7       	in	r29, 0x3e	; 62
     c6c:	28 97       	sbiw	r28, 0x08	; 8
     c6e:	0f b6       	in	r0, 0x3f	; 63
     c70:	f8 94       	cli
     c72:	de bf       	out	0x3e, r29	; 62
     c74:	0f be       	out	0x3f, r0	; 63
     c76:	cd bf       	out	0x3d, r28	; 61
     c78:	9a 83       	std	Y+2, r25	; 0x02
     c7a:	89 83       	std	Y+1, r24	; 0x01
     c7c:	7c 83       	std	Y+4, r23	; 0x04
     c7e:	6b 83       	std	Y+3, r22	; 0x03
     c80:	4d 83       	std	Y+5, r20	; 0x05
     c82:	3f 83       	std	Y+7, r19	; 0x07
     c84:	2e 83       	std	Y+6, r18	; 0x06
     c86:	08 87       	std	Y+8, r16	; 0x08
     c88:	29 81       	ldd	r18, Y+1	; 0x01
     c8a:	3a 81       	ldd	r19, Y+2	; 0x02
     c8c:	8b 81       	ldd	r24, Y+3	; 0x03
     c8e:	9c 81       	ldd	r25, Y+4	; 0x04
     c90:	28 17       	cp	r18, r24
     c92:	39 07       	cpc	r19, r25
     c94:	29 f4       	brne	.+10     	; 0xca0 <_ZN6ErrorsC1EPbbPhh+0x3e>
     c96:	89 81       	ldd	r24, Y+1	; 0x01
     c98:	9a 81       	ldd	r25, Y+2	; 0x02
     c9a:	2d 81       	ldd	r18, Y+5	; 0x05
     c9c:	fc 01       	movw	r30, r24
     c9e:	20 83       	st	Z, r18
     ca0:	89 81       	ldd	r24, Y+1	; 0x01
     ca2:	9a 81       	ldd	r25, Y+2	; 0x02
     ca4:	9c 01       	movw	r18, r24
     ca6:	2f 5f       	subi	r18, 0xFF	; 255
     ca8:	3f 4f       	sbci	r19, 0xFF	; 255
     caa:	8e 81       	ldd	r24, Y+6	; 0x06
     cac:	9f 81       	ldd	r25, Y+7	; 0x07
     cae:	28 17       	cp	r18, r24
     cb0:	39 07       	cpc	r19, r25
     cb2:	29 f4       	brne	.+10     	; 0xcbe <_ZN6ErrorsC1EPbbPhh+0x5c>
     cb4:	89 81       	ldd	r24, Y+1	; 0x01
     cb6:	9a 81       	ldd	r25, Y+2	; 0x02
     cb8:	28 85       	ldd	r18, Y+8	; 0x08
     cba:	fc 01       	movw	r30, r24
     cbc:	21 83       	std	Z+1, r18	; 0x01
     cbe:	89 81       	ldd	r24, Y+1	; 0x01
     cc0:	9a 81       	ldd	r25, Y+2	; 0x02
     cc2:	fc 01       	movw	r30, r24
     cc4:	12 82       	std	Z+2, r1	; 0x02
     cc6:	89 81       	ldd	r24, Y+1	; 0x01
     cc8:	9a 81       	ldd	r25, Y+2	; 0x02
     cca:	fc 01       	movw	r30, r24
     ccc:	13 82       	std	Z+3, r1	; 0x03
     cce:	89 81       	ldd	r24, Y+1	; 0x01
     cd0:	9a 81       	ldd	r25, Y+2	; 0x02
     cd2:	fc 01       	movw	r30, r24
     cd4:	14 82       	std	Z+4, r1	; 0x04
     cd6:	28 96       	adiw	r28, 0x08	; 8
     cd8:	0f b6       	in	r0, 0x3f	; 63
     cda:	f8 94       	cli
     cdc:	de bf       	out	0x3e, r29	; 62
     cde:	0f be       	out	0x3f, r0	; 63
     ce0:	cd bf       	out	0x3d, r28	; 61
     ce2:	df 91       	pop	r29
     ce4:	cf 91       	pop	r28
     ce6:	0f 91       	pop	r16
     ce8:	08 95       	ret

00000cea <_ZN6Errors7iterateEv>:
     cea:	cf 93       	push	r28
     cec:	df 93       	push	r29
     cee:	00 d0       	rcall	.+0      	; 0xcf0 <_ZN6Errors7iterateEv+0x6>
     cf0:	cd b7       	in	r28, 0x3d	; 61
     cf2:	de b7       	in	r29, 0x3e	; 62
     cf4:	9a 83       	std	Y+2, r25	; 0x02
     cf6:	89 83       	std	Y+1, r24	; 0x01
     cf8:	89 81       	ldd	r24, Y+1	; 0x01
     cfa:	9a 81       	ldd	r25, Y+2	; 0x02
     cfc:	fc 01       	movw	r30, r24
     cfe:	24 81       	ldd	r18, Z+4	; 0x04
     d00:	89 81       	ldd	r24, Y+1	; 0x01
     d02:	9a 81       	ldd	r25, Y+2	; 0x02
     d04:	fc 01       	movw	r30, r24
     d06:	81 81       	ldd	r24, Z+1	; 0x01
     d08:	82 17       	cp	r24, r18
     d0a:	30 f4       	brcc	.+12     	; 0xd18 <_ZN6Errors7iterateEv+0x2e>
     d0c:	89 81       	ldd	r24, Y+1	; 0x01
     d0e:	9a 81       	ldd	r25, Y+2	; 0x02
     d10:	21 e0       	ldi	r18, 0x01	; 1
     d12:	fc 01       	movw	r30, r24
     d14:	22 83       	std	Z+2, r18	; 0x02
     d16:	0a c0       	rjmp	.+20     	; 0xd2c <_ZN6Errors7iterateEv+0x42>
     d18:	89 81       	ldd	r24, Y+1	; 0x01
     d1a:	9a 81       	ldd	r25, Y+2	; 0x02
     d1c:	fc 01       	movw	r30, r24
     d1e:	84 81       	ldd	r24, Z+4	; 0x04
     d20:	21 e0       	ldi	r18, 0x01	; 1
     d22:	28 0f       	add	r18, r24
     d24:	89 81       	ldd	r24, Y+1	; 0x01
     d26:	9a 81       	ldd	r25, Y+2	; 0x02
     d28:	fc 01       	movw	r30, r24
     d2a:	24 83       	std	Z+4, r18	; 0x04
     d2c:	0f 90       	pop	r0
     d2e:	0f 90       	pop	r0
     d30:	df 91       	pop	r29
     d32:	cf 91       	pop	r28
     d34:	08 95       	ret

00000d36 <_ZN6Errors5resetEv>:
     d36:	cf 93       	push	r28
     d38:	df 93       	push	r29
     d3a:	00 d0       	rcall	.+0      	; 0xd3c <_ZN6Errors5resetEv+0x6>
     d3c:	cd b7       	in	r28, 0x3d	; 61
     d3e:	de b7       	in	r29, 0x3e	; 62
     d40:	9a 83       	std	Y+2, r25	; 0x02
     d42:	89 83       	std	Y+1, r24	; 0x01
     d44:	89 81       	ldd	r24, Y+1	; 0x01
     d46:	9a 81       	ldd	r25, Y+2	; 0x02
     d48:	fc 01       	movw	r30, r24
     d4a:	14 82       	std	Z+4, r1	; 0x04
     d4c:	89 81       	ldd	r24, Y+1	; 0x01
     d4e:	9a 81       	ldd	r25, Y+2	; 0x02
     d50:	fc 01       	movw	r30, r24
     d52:	90 81       	ld	r25, Z
     d54:	81 e0       	ldi	r24, 0x01	; 1
     d56:	89 27       	eor	r24, r25
     d58:	88 23       	and	r24, r24
     d5a:	21 f0       	breq	.+8      	; 0xd64 <_ZN6Errors5resetEv+0x2e>
     d5c:	89 81       	ldd	r24, Y+1	; 0x01
     d5e:	9a 81       	ldd	r25, Y+2	; 0x02
     d60:	fc 01       	movw	r30, r24
     d62:	12 82       	std	Z+2, r1	; 0x02
     d64:	0f 90       	pop	r0
     d66:	0f 90       	pop	r0
     d68:	df 91       	pop	r29
     d6a:	cf 91       	pop	r28
     d6c:	08 95       	ret

00000d6e <_Z9cacheBytePhS_h>:
     d6e:	cf 93       	push	r28
     d70:	df 93       	push	r29
     d72:	00 d0       	rcall	.+0      	; 0xd74 <_Z9cacheBytePhS_h+0x6>
     d74:	00 d0       	rcall	.+0      	; 0xd76 <_Z9cacheBytePhS_h+0x8>
     d76:	1f 92       	push	r1
     d78:	cd b7       	in	r28, 0x3d	; 61
     d7a:	de b7       	in	r29, 0x3e	; 62
     d7c:	9a 83       	std	Y+2, r25	; 0x02
     d7e:	89 83       	std	Y+1, r24	; 0x01
     d80:	7c 83       	std	Y+4, r23	; 0x04
     d82:	6b 83       	std	Y+3, r22	; 0x03
     d84:	4d 83       	std	Y+5, r20	; 0x05
     d86:	8b 81       	ldd	r24, Y+3	; 0x03
     d88:	9c 81       	ldd	r25, Y+4	; 0x04
     d8a:	0e 94 dc 15 	call	0x2bb8	; 0x2bb8 <eeprom_read_byte>
     d8e:	28 2f       	mov	r18, r24
     d90:	89 81       	ldd	r24, Y+1	; 0x01
     d92:	9a 81       	ldd	r25, Y+2	; 0x02
     d94:	fc 01       	movw	r30, r24
     d96:	20 83       	st	Z, r18
     d98:	89 81       	ldd	r24, Y+1	; 0x01
     d9a:	9a 81       	ldd	r25, Y+2	; 0x02
     d9c:	fc 01       	movw	r30, r24
     d9e:	80 81       	ld	r24, Z
     da0:	8f 3f       	cpi	r24, 0xFF	; 255
     da2:	71 f4       	brne	.+28     	; 0xdc0 <_Z9cacheBytePhS_h+0x52>
     da4:	89 81       	ldd	r24, Y+1	; 0x01
     da6:	9a 81       	ldd	r25, Y+2	; 0x02
     da8:	2d 81       	ldd	r18, Y+5	; 0x05
     daa:	fc 01       	movw	r30, r24
     dac:	20 83       	st	Z, r18
     dae:	89 81       	ldd	r24, Y+1	; 0x01
     db0:	9a 81       	ldd	r25, Y+2	; 0x02
     db2:	fc 01       	movw	r30, r24
     db4:	20 81       	ld	r18, Z
     db6:	8b 81       	ldd	r24, Y+3	; 0x03
     db8:	9c 81       	ldd	r25, Y+4	; 0x04
     dba:	62 2f       	mov	r22, r18
     dbc:	0e 94 e4 15 	call	0x2bc8	; 0x2bc8 <eeprom_update_byte>
     dc0:	0f 90       	pop	r0
     dc2:	0f 90       	pop	r0
     dc4:	0f 90       	pop	r0
     dc6:	0f 90       	pop	r0
     dc8:	0f 90       	pop	r0
     dca:	df 91       	pop	r29
     dcc:	cf 91       	pop	r28
     dce:	08 95       	ret

00000dd0 <_Z19initCachedEEPValuesv>:

void initCachedEEPValues()						//Считывает данные из EEPROM в RAM, задает дефолтные значение при первом запуске
{
     dd0:	cf 93       	push	r28
     dd2:	df 93       	push	r29
     dd4:	cd b7       	in	r28, 0x3d	; 61
     dd6:	de b7       	in	r29, 0x3e	; 62
	cacheByte(&loaderNodeNumberCached, &loaderNodeNumber, DEFAULT_LOADER_NODE_NUMBER);
     dd8:	44 e2       	ldi	r20, 0x24	; 36
     dda:	6f e0       	ldi	r22, 0x0F	; 15
     ddc:	70 e0       	ldi	r23, 0x00	; 0
     dde:	8b eb       	ldi	r24, 0xBB	; 187
     de0:	95 e0       	ldi	r25, 0x05	; 5
     de2:	c5 df       	rcall	.-118    	; 0xd6e <_Z9cacheBytePhS_h>
	cacheByte(&ntcOvhTempCached,	&constants[0],	DEFAUTL_NTC_OVH_TEMP);
     de4:	4c e3       	ldi	r20, 0x3C	; 60
     de6:	60 e0       	ldi	r22, 0x00	; 0
     de8:	70 e0       	ldi	r23, 0x00	; 0
     dea:	8d ea       	ldi	r24, 0xAD	; 173
     dec:	95 e0       	ldi	r25, 0x05	; 5
     dee:	bf df       	rcall	.-130    	; 0xd6e <_Z9cacheBytePhS_h>
	cacheByte(&fbErrLimitCached,	&constants[1],	DEFAULT_FB_ERR_LIMIT);
     df0:	42 e3       	ldi	r20, 0x32	; 50
     df2:	61 e0       	ldi	r22, 0x01	; 1
     df4:	70 e0       	ldi	r23, 0x00	; 0
     df6:	8e ea       	ldi	r24, 0xAE	; 174
     df8:	95 e0       	ldi	r25, 0x05	; 5
     dfa:	b9 df       	rcall	.-142    	; 0xd6e <_Z9cacheBytePhS_h>
	cacheByte(&otherErrLimitCached,	&constants[2],	DEFAULT_OTHER_ERR_LIMIT);
     dfc:	4a e0       	ldi	r20, 0x0A	; 10
     dfe:	62 e0       	ldi	r22, 0x02	; 2
     e00:	70 e0       	ldi	r23, 0x00	; 0
     e02:	8f ea       	ldi	r24, 0xAF	; 175
     e04:	95 e0       	ldi	r25, 0x05	; 5
     e06:	b3 df       	rcall	.-154    	; 0xd6e <_Z9cacheBytePhS_h>
	cacheByte(&fbHalfCached,		&constants[3],	DEFAULT_FB_HALF);
     e08:	47 e2       	ldi	r20, 0x27	; 39
     e0a:	63 e0       	ldi	r22, 0x03	; 3
     e0c:	70 e0       	ldi	r23, 0x00	; 0
     e0e:	80 eb       	ldi	r24, 0xB0	; 176
     e10:	95 e0       	ldi	r25, 0x05	; 5
     e12:	ad df       	rcall	.-166    	; 0xd6e <_Z9cacheBytePhS_h>
	cacheByte(&fbFullCached,		&constants[4],	DEFAULT_FB_FULL);
     e14:	43 e6       	ldi	r20, 0x63	; 99
     e16:	64 e0       	ldi	r22, 0x04	; 4
     e18:	70 e0       	ldi	r23, 0x00	; 0
     e1a:	81 eb       	ldi	r24, 0xB1	; 177
     e1c:	95 e0       	ldi	r25, 0x05	; 5
     e1e:	a7 df       	rcall	.-178    	; 0xd6e <_Z9cacheBytePhS_h>
	cacheByte(&fbAccuracyCached,	&constants[5],	DEFAULT_FB_ACCURACY);
     e20:	4e e1       	ldi	r20, 0x1E	; 30
     e22:	65 e0       	ldi	r22, 0x05	; 5
     e24:	70 e0       	ldi	r23, 0x00	; 0
     e26:	82 eb       	ldi	r24, 0xB2	; 178
     e28:	95 e0       	ldi	r25, 0x05	; 5
     e2a:	a1 df       	rcall	.-190    	; 0xd6e <_Z9cacheBytePhS_h>
	cacheByte(&fbCheckerCached,		&constants[6],	DEFAULT_FB_CHECKER);
     e2c:	40 e0       	ldi	r20, 0x00	; 0
     e2e:	66 e0       	ldi	r22, 0x06	; 6
     e30:	70 e0       	ldi	r23, 0x00	; 0
     e32:	83 eb       	ldi	r24, 0xB3	; 179
     e34:	95 e0       	ldi	r25, 0x05	; 5
     e36:	9b df       	rcall	.-202    	; 0xd6e <_Z9cacheBytePhS_h>
	cacheByte(&ctrlHalfCached,		&constants[7],	DEFAULT_CTRL_HALF);
     e38:	4f e0       	ldi	r20, 0x0F	; 15
     e3a:	67 e0       	ldi	r22, 0x07	; 7
     e3c:	70 e0       	ldi	r23, 0x00	; 0
     e3e:	84 eb       	ldi	r24, 0xB4	; 180
     e40:	95 e0       	ldi	r25, 0x05	; 5
     e42:	95 df       	rcall	.-214    	; 0xd6e <_Z9cacheBytePhS_h>
	cacheByte(&ctrlFullCached,		&constants[8],	DEFAULT_CTRL_FULL);
     e44:	4d e2       	ldi	r20, 0x2D	; 45
     e46:	68 e0       	ldi	r22, 0x08	; 8
     e48:	70 e0       	ldi	r23, 0x00	; 0
     e4a:	85 eb       	ldi	r24, 0xB5	; 181
     e4c:	95 e0       	ldi	r25, 0x05	; 5
     e4e:	8f df       	rcall	.-226    	; 0xd6e <_Z9cacheBytePhS_h>
	cacheByte(&minFanVoltCached,	&constants[9],	DEFAULT_MIN_FAN_VOLT);
     e50:	4d e6       	ldi	r20, 0x6D	; 109
     e52:	69 e0       	ldi	r22, 0x09	; 9
     e54:	70 e0       	ldi	r23, 0x00	; 0
     e56:	86 eb       	ldi	r24, 0xB6	; 182
     e58:	95 e0       	ldi	r25, 0x05	; 5
     e5a:	89 df       	rcall	.-238    	; 0xd6e <_Z9cacheBytePhS_h>
	cacheByte(&maxFanVoltCached,	&constants[10],	DEFAULT_MAX_FAN_VOLT);
     e5c:	42 ec       	ldi	r20, 0xC2	; 194
     e5e:	6a e0       	ldi	r22, 0x0A	; 10
     e60:	70 e0       	ldi	r23, 0x00	; 0
     e62:	87 eb       	ldi	r24, 0xB7	; 183
     e64:	95 e0       	ldi	r25, 0x05	; 5
     e66:	83 df       	rcall	.-250    	; 0xd6e <_Z9cacheBytePhS_h>
	cacheByte(&critErrLimitCached,	&constants[11],	DEFAULT_CRIT_ERR_LIMIT);
     e68:	4e e1       	ldi	r20, 0x1E	; 30
     e6a:	6b e0       	ldi	r22, 0x0B	; 11
     e6c:	70 e0       	ldi	r23, 0x00	; 0
     e6e:	88 eb       	ldi	r24, 0xB8	; 184
     e70:	95 e0       	ldi	r25, 0x05	; 5
     e72:	7d df       	rcall	.-262    	; 0xd6e <_Z9cacheBytePhS_h>
	cacheByte(&fanMaskLCached,		&constants[12],	DEFAULT_FAN_MASK_L);
     e74:	4c ef       	ldi	r20, 0xFC	; 252
     e76:	6c e0       	ldi	r22, 0x0C	; 12
     e78:	70 e0       	ldi	r23, 0x00	; 0
     e7a:	89 eb       	ldi	r24, 0xB9	; 185
     e7c:	95 e0       	ldi	r25, 0x05	; 5
     e7e:	77 df       	rcall	.-274    	; 0xd6e <_Z9cacheBytePhS_h>
	cacheByte(&fanMaskHCached,		&constants[13],	DEFAULT_FAN_MASK_H);
     e80:	43 e0       	ldi	r20, 0x03	; 3
     e82:	6d e0       	ldi	r22, 0x0D	; 13
     e84:	70 e0       	ldi	r23, 0x00	; 0
     e86:	8a eb       	ldi	r24, 0xBA	; 186
     e88:	95 e0       	ldi	r25, 0x05	; 5
     e8a:	71 df       	rcall	.-286    	; 0xd6e <_Z9cacheBytePhS_h>
	
	//так как мне вперся конструктор объектов вне основного кода - приходится апдейтить задержки вот тут
	err_FAN_dismatch.counter_limit = fbErrLimitCached;	//внимание, отличается от остальных
     e8c:	80 91 ae 05 	lds	r24, 0x05AE	; 0x8005ae <fbErrLimitCached>
     e90:	80 93 7f 05 	sts	0x057F, r24	; 0x80057f <err_FAN_dismatch+0x1>
	err_NTC_ovh.counter_limit = otherErrLimitCached;
     e94:	80 91 af 05 	lds	r24, 0x05AF	; 0x8005af <otherErrLimitCached>
     e98:	80 93 70 05 	sts	0x0570, r24	; 0x800570 <err_NTC_ovh+0x1>
	err_NTC_lock.counter_limit = otherErrLimitCached;
     e9c:	80 91 af 05 	lds	r24, 0x05AF	; 0x8005af <otherErrLimitCached>
     ea0:	80 93 75 05 	sts	0x0575, r24	; 0x800575 <err_NTC_lock+0x1>
	err_NTC_break.counter_limit = otherErrLimitCached;
     ea4:	80 91 af 05 	lds	r24, 0x05AF	; 0x8005af <otherErrLimitCached>
     ea8:	80 93 7a 05 	sts	0x057A, r24	; 0x80057a <err_NTC_break+0x1>
	err_undervolt.counter_limit = otherErrLimitCached;
     eac:	80 91 af 05 	lds	r24, 0x05AF	; 0x8005af <otherErrLimitCached>
     eb0:	80 93 84 05 	sts	0x0584, r24	; 0x800584 <err_undervolt+0x1>
	err_overvolt.counter_limit = otherErrLimitCached;
     eb4:	80 91 af 05 	lds	r24, 0x05AF	; 0x8005af <otherErrLimitCached>
     eb8:	80 93 89 05 	sts	0x0589, r24	; 0x800589 <err_overvolt+0x1>
	err_CRIT.counter_limit = critErrLimitCached;		//отличается от остальных
     ebc:	80 91 b8 05 	lds	r24, 0x05B8	; 0x8005b8 <critErrLimitCached>
     ec0:	80 93 98 05 	sts	0x0598, r24	; 0x800598 <err_CRIT+0x1>
}
     ec4:	df 91       	pop	r29
     ec6:	cf 91       	pop	r28
     ec8:	08 95       	ret

00000eca <_Z25readMessageWithAllRoutinev>:

//работа с CAN
uint8_t readMessageWithAllRoutine()				//Возвращает 1 если сообщение принято, 0 если нет. Данные пишет в lastCANmessage[9].
{
     eca:	cf 93       	push	r28
     ecc:	df 93       	push	r29
     ece:	cd b7       	in	r28, 0x3d	; 61
     ed0:	de b7       	in	r29, 0x3e	; 62
	if (CANSTMOB)
     ed2:	8e ee       	ldi	r24, 0xEE	; 238
     ed4:	90 e0       	ldi	r25, 0x00	; 0
     ed6:	fc 01       	movw	r30, r24
     ed8:	90 81       	ld	r25, Z
     eda:	81 e0       	ldi	r24, 0x01	; 1
     edc:	99 23       	and	r25, r25
     ede:	09 f4       	brne	.+2      	; 0xee2 <_Z25readMessageWithAllRoutinev+0x18>
     ee0:	80 e0       	ldi	r24, 0x00	; 0
     ee2:	88 23       	and	r24, r24
     ee4:	d1 f0       	breq	.+52     	; 0xf1a <_Z25readMessageWithAllRoutinev+0x50>
	{
		if (CANSTMOB & (1 << RXOK))	//Этот MOb вызвал прерывание по приёму
     ee6:	8e ee       	ldi	r24, 0xEE	; 238
     ee8:	90 e0       	ldi	r25, 0x00	; 0
     eea:	fc 01       	movw	r30, r24
     eec:	80 81       	ld	r24, Z
     eee:	88 2f       	mov	r24, r24
     ef0:	90 e0       	ldi	r25, 0x00	; 0
     ef2:	80 72       	andi	r24, 0x20	; 32
     ef4:	99 27       	eor	r25, r25
     ef6:	21 e0       	ldi	r18, 0x01	; 1
     ef8:	89 2b       	or	r24, r25
     efa:	09 f4       	brne	.+2      	; 0xefe <_Z25readMessageWithAllRoutinev+0x34>
     efc:	20 e0       	ldi	r18, 0x00	; 0
     efe:	22 23       	and	r18, r18
     f00:	51 f0       	breq	.+20     	; 0xf16 <_Z25readMessageWithAllRoutinev+0x4c>
		{
			canResetFlag = 255;	//Пришло сообщение - перезагружать CAN не нужно.
     f02:	8f ef       	ldi	r24, 0xFF	; 255
     f04:	80 93 4f 05 	sts	0x054F, r24	; 0x80054f <canResetFlag>
			get8BytesFromCurrentMOb(lastCANmessage);
     f08:	82 ea       	ldi	r24, 0xA2	; 162
     f0a:	95 e0       	ldi	r25, 0x05	; 5
     f0c:	c3 db       	rcall	.-2170   	; 0x694 <_Z23get8BytesFromCurrentMObPh>
			resetCurrentMObStatus(modeRx);
     f0e:	82 e0       	ldi	r24, 0x02	; 2
     f10:	87 db       	rcall	.-2290   	; 0x620 <_Z21resetCurrentMObStatus7MobMods>
			return 1;
     f12:	81 e0       	ldi	r24, 0x01	; 1
     f14:	03 c0       	rjmp	.+6      	; 0xf1c <_Z25readMessageWithAllRoutinev+0x52>
		}
		else
		{
			resetCurrentMObStatus(modeRx);
     f16:	82 e0       	ldi	r24, 0x02	; 2
     f18:	83 db       	rcall	.-2298   	; 0x620 <_Z21resetCurrentMObStatus7MobMods>
		}
	}
	return 0;
     f1a:	80 e0       	ldi	r24, 0x00	; 0
}
     f1c:	df 91       	pop	r29
     f1e:	cf 91       	pop	r28
     f20:	08 95       	ret

00000f22 <_Z10configMobsv>:

void configMobs()								//привязка мобов к адресам
{	
     f22:	0f 93       	push	r16
     f24:	cf 93       	push	r28
     f26:	df 93       	push	r29
     f28:	cd b7       	in	r28, 0x3d	; 61
     f2a:	de b7       	in	r29, 0x3e	; 62
	configMob(PULT_PACK, NUM_PULT_PACK, modeRx, DEFAULT_CAN_MODE);		//Инфа от пульта
     f2c:	00 e0       	ldi	r16, 0x00	; 0
     f2e:	22 e0       	ldi	r18, 0x02	; 2
     f30:	40 e0       	ldi	r20, 0x00	; 0
     f32:	60 eb       	ldi	r22, 0xB0	; 176
     f34:	71 e0       	ldi	r23, 0x01	; 1
     f36:	80 e0       	ldi	r24, 0x00	; 0
     f38:	90 e0       	ldi	r25, 0x00	; 0
     f3a:	51 dc       	rcall	.-1886   	; 0x7de <_Z9configMobmh7MobMods7CanMode>
	configMob(STAT_PACK, NUM_STAT_PACK, modeTx, DEFAULT_CAN_MODE);		//Статистика
     f3c:	00 e0       	ldi	r16, 0x00	; 0
     f3e:	21 e0       	ldi	r18, 0x01	; 1
     f40:	4d e0       	ldi	r20, 0x0D	; 13
     f42:	63 e3       	ldi	r22, 0x33	; 51
     f44:	72 e0       	ldi	r23, 0x02	; 2
     f46:	80 e0       	ldi	r24, 0x00	; 0
     f48:	90 e0       	ldi	r25, 0x00	; 0
     f4a:	49 dc       	rcall	.-1902   	; 0x7de <_Z9configMobmh7MobMods7CanMode>
	configMob(CONFIG_PACK, NUM_CONFIG_PACK, modeRx, DEFAULT_CAN_MODE);	//Настройка
     f4c:	00 e0       	ldi	r16, 0x00	; 0
     f4e:	22 e0       	ldi	r18, 0x02	; 2
     f50:	41 e0       	ldi	r20, 0x01	; 1
     f52:	65 eb       	ldi	r22, 0xB5	; 181
     f54:	71 e0       	ldi	r23, 0x01	; 1
     f56:	80 e0       	ldi	r24, 0x00	; 0
     f58:	90 e0       	ldi	r25, 0x00	; 0
     f5a:	41 dc       	rcall	.-1918   	; 0x7de <_Z9configMobmh7MobMods7CanMode>
	configMob(ANSWER_PACK, NUM_ANSWER_PACK, modeTx, DEFAULT_CAN_MODE);	//Ответ на настройку
     f5c:	00 e0       	ldi	r16, 0x00	; 0
     f5e:	21 e0       	ldi	r18, 0x01	; 1
     f60:	4e e0       	ldi	r20, 0x0E	; 14
     f62:	6c e3       	ldi	r22, 0x3C	; 60
     f64:	72 e0       	ldi	r23, 0x02	; 2
     f66:	80 e0       	ldi	r24, 0x00	; 0
     f68:	90 e0       	ldi	r25, 0x00	; 0
     f6a:	39 dc       	rcall	.-1934   	; 0x7de <_Z9configMobmh7MobMods7CanMode>
}
     f6c:	df 91       	pop	r29
     f6e:	cf 91       	pop	r28
     f70:	0f 91       	pop	r16
     f72:	08 95       	ret

00000f74 <_Z8sendStatv>:

void sendStat()									//формирует и отправляет пакет со статистикой
{
     f74:	cf 93       	push	r28
     f76:	df 93       	push	r29
     f78:	cd b7       	in	r28, 0x3d	; 61
     f7a:	de b7       	in	r29, 0x3e	; 62
     f7c:	28 97       	sbiw	r28, 0x08	; 8
     f7e:	0f b6       	in	r0, 0x3f	; 63
     f80:	f8 94       	cli
     f82:	de bf       	out	0x3e, r29	; 62
     f84:	0f be       	out	0x3f, r0	; 63
     f86:	cd bf       	out	0x3d, r28	; 61
	uint8_t message[8] = {0};
     f88:	28 e0       	ldi	r18, 0x08	; 8
     f8a:	ce 01       	movw	r24, r28
     f8c:	01 96       	adiw	r24, 0x01	; 1
     f8e:	fc 01       	movw	r30, r24
     f90:	32 2f       	mov	r19, r18
     f92:	11 92       	st	Z+, r1
     f94:	3a 95       	dec	r19
     f96:	e9 f7       	brne	.-6      	; 0xf92 <_Z8sendStatv+0x1e>
	message[0] = current_state;						//0-STB, 1-HALF, 2-FULL, 3-MAN, 4-ERROR, 5-CRIT
     f98:	80 91 6d 05 	lds	r24, 0x056D	; 0x80056d <current_state>
     f9c:	89 83       	std	Y+1, r24	; 0x01
	message[1] = TZV_OK;
     f9e:	80 91 4e 05 	lds	r24, 0x054E	; 0x80054e <TZV_OK>
     fa2:	8a 83       	std	Y+2, r24	; 0x02
	message[3] = heat_request;
     fa4:	80 91 69 05 	lds	r24, 0x0569	; 0x800569 <heat_request>
     fa8:	8c 83       	std	Y+4, r24	; 0x04
	message[4] = heat_state;
     faa:	80 91 6a 05 	lds	r24, 0x056A	; 0x80056a <heat_state>
     fae:	8d 83       	std	Y+5, r24	; 0x05
	message[5] = 0;
     fb0:	1e 82       	std	Y+6, r1	; 0x06
	message[6] = VERSION_OF_SOFTWARE;
     fb2:	84 e0       	ldi	r24, 0x04	; 4
     fb4:	8f 83       	std	Y+7, r24	; 0x07
	message[7] = index; //номер завесы от 0 до 5
     fb6:	80 91 bc 05 	lds	r24, 0x05BC	; 0x8005bc <index>
     fba:	88 87       	std	Y+8, r24	; 0x08
	//формирование байта ошибок
	message[2] |= (err_NTC_ovh.flag <<		0);
     fbc:	8b 81       	ldd	r24, Y+3	; 0x03
     fbe:	90 91 71 05 	lds	r25, 0x0571	; 0x800571 <err_NTC_ovh+0x2>
     fc2:	89 2b       	or	r24, r25
     fc4:	8b 83       	std	Y+3, r24	; 0x03
	message[2] |= (err_NTC_lock.flag <<		1);
     fc6:	8b 81       	ldd	r24, Y+3	; 0x03
     fc8:	28 2f       	mov	r18, r24
     fca:	80 91 76 05 	lds	r24, 0x0576	; 0x800576 <err_NTC_lock+0x2>
     fce:	88 2f       	mov	r24, r24
     fd0:	90 e0       	ldi	r25, 0x00	; 0
     fd2:	88 0f       	add	r24, r24
     fd4:	99 1f       	adc	r25, r25
     fd6:	82 2b       	or	r24, r18
     fd8:	8b 83       	std	Y+3, r24	; 0x03
	message[2] |= (err_NTC_break.flag <<	2);
     fda:	8b 81       	ldd	r24, Y+3	; 0x03
     fdc:	28 2f       	mov	r18, r24
     fde:	80 91 7b 05 	lds	r24, 0x057B	; 0x80057b <err_NTC_break+0x2>
     fe2:	88 2f       	mov	r24, r24
     fe4:	90 e0       	ldi	r25, 0x00	; 0
     fe6:	88 0f       	add	r24, r24
     fe8:	99 1f       	adc	r25, r25
     fea:	88 0f       	add	r24, r24
     fec:	99 1f       	adc	r25, r25
     fee:	82 2b       	or	r24, r18
     ff0:	8b 83       	std	Y+3, r24	; 0x03
	message[2] |= (err_FAN_dismatch.flag << 3);
     ff2:	8b 81       	ldd	r24, Y+3	; 0x03
     ff4:	28 2f       	mov	r18, r24
     ff6:	80 91 80 05 	lds	r24, 0x0580	; 0x800580 <err_FAN_dismatch+0x2>
     ffa:	88 2f       	mov	r24, r24
     ffc:	90 e0       	ldi	r25, 0x00	; 0
     ffe:	88 0f       	add	r24, r24
    1000:	99 1f       	adc	r25, r25
    1002:	88 0f       	add	r24, r24
    1004:	99 1f       	adc	r25, r25
    1006:	88 0f       	add	r24, r24
    1008:	99 1f       	adc	r25, r25
    100a:	82 2b       	or	r24, r18
    100c:	8b 83       	std	Y+3, r24	; 0x03
	message[2] |= (err_undervolt.flag <<	4);
    100e:	8b 81       	ldd	r24, Y+3	; 0x03
    1010:	28 2f       	mov	r18, r24
    1012:	80 91 85 05 	lds	r24, 0x0585	; 0x800585 <err_undervolt+0x2>
    1016:	88 2f       	mov	r24, r24
    1018:	90 e0       	ldi	r25, 0x00	; 0
    101a:	82 95       	swap	r24
    101c:	92 95       	swap	r25
    101e:	90 7f       	andi	r25, 0xF0	; 240
    1020:	98 27       	eor	r25, r24
    1022:	80 7f       	andi	r24, 0xF0	; 240
    1024:	98 27       	eor	r25, r24
    1026:	82 2b       	or	r24, r18
    1028:	8b 83       	std	Y+3, r24	; 0x03
	message[2] |= (err_overvolt.flag <<		5);
    102a:	8b 81       	ldd	r24, Y+3	; 0x03
    102c:	28 2f       	mov	r18, r24
    102e:	80 91 8a 05 	lds	r24, 0x058A	; 0x80058a <err_overvolt+0x2>
    1032:	88 2f       	mov	r24, r24
    1034:	90 e0       	ldi	r25, 0x00	; 0
    1036:	88 0f       	add	r24, r24
    1038:	99 1f       	adc	r25, r25
    103a:	82 95       	swap	r24
    103c:	92 95       	swap	r25
    103e:	90 7f       	andi	r25, 0xF0	; 240
    1040:	98 27       	eor	r25, r24
    1042:	80 7f       	andi	r24, 0xF0	; 240
    1044:	98 27       	eor	r25, r24
    1046:	82 2b       	or	r24, r18
    1048:	8b 83       	std	Y+3, r24	; 0x03
	message[2] |= (err_PKBN_break.flag <<	6);
    104a:	8b 81       	ldd	r24, Y+3	; 0x03
    104c:	28 2f       	mov	r18, r24
    104e:	80 91 94 05 	lds	r24, 0x0594	; 0x800594 <err_PKBN_break+0x2>
    1052:	88 2f       	mov	r24, r24
    1054:	90 e0       	ldi	r25, 0x00	; 0
    1056:	00 24       	eor	r0, r0
    1058:	96 95       	lsr	r25
    105a:	87 95       	ror	r24
    105c:	07 94       	ror	r0
    105e:	96 95       	lsr	r25
    1060:	87 95       	ror	r24
    1062:	07 94       	ror	r0
    1064:	98 2f       	mov	r25, r24
    1066:	80 2d       	mov	r24, r0
    1068:	82 2b       	or	r24, r18
    106a:	8b 83       	std	Y+3, r24	; 0x03
	message[2] |= (err_CRIT.flag <<			7);
    106c:	8b 81       	ldd	r24, Y+3	; 0x03
    106e:	28 2f       	mov	r18, r24
    1070:	80 91 99 05 	lds	r24, 0x0599	; 0x800599 <err_CRIT+0x2>
    1074:	88 2f       	mov	r24, r24
    1076:	90 e0       	ldi	r25, 0x00	; 0
    1078:	96 95       	lsr	r25
    107a:	98 2f       	mov	r25, r24
    107c:	88 27       	eor	r24, r24
    107e:	97 95       	ror	r25
    1080:	87 95       	ror	r24
    1082:	82 2b       	or	r24, r18
    1084:	8b 83       	std	Y+3, r24	; 0x03
	message[5] |= (err_CAN_disconnect.flag << 0);
    1086:	8e 81       	ldd	r24, Y+6	; 0x06
    1088:	90 91 8f 05 	lds	r25, 0x058F	; 0x80058f <err_CAN_disconnect+0x2>
    108c:	89 2b       	or	r24, r25
    108e:	8e 83       	std	Y+6, r24	; 0x06
	transmit8BytesByCAN(NUM_STAT_PACK, message);
    1090:	ce 01       	movw	r24, r28
    1092:	01 96       	adiw	r24, 0x01	; 1
    1094:	bc 01       	movw	r22, r24
    1096:	8d e0       	ldi	r24, 0x0D	; 13
    1098:	5e db       	rcall	.-2372   	; 0x756 <_Z19transmit8BytesByCANhPh>
}
    109a:	28 96       	adiw	r28, 0x08	; 8
    109c:	0f b6       	in	r0, 0x3f	; 63
    109e:	f8 94       	cli
    10a0:	de bf       	out	0x3e, r29	; 62
    10a2:	0f be       	out	0x3f, r0	; 63
    10a4:	cd bf       	out	0x3d, r28	; 61
    10a6:	df 91       	pop	r29
    10a8:	cf 91       	pop	r28
    10aa:	08 95       	ret

000010ac <_Z6configv>:

//настройка аппаратки

void config ()			//Накстройка портов и модулей
{
    10ac:	cf 93       	push	r28
    10ae:	df 93       	push	r29
    10b0:	cd b7       	in	r28, 0x3d	; 61
    10b2:	de b7       	in	r29, 0x3e	; 62
	//порт A: DIAG, FAN_INPUT_10, FAN_INPUT_9
	DDRA = 0x00;
    10b4:	81 e2       	ldi	r24, 0x21	; 33
    10b6:	90 e0       	ldi	r25, 0x00	; 0
    10b8:	fc 01       	movw	r30, r24
    10ba:	10 82       	st	Z, r1
	PORTA = 0x00;		//везде записываем lowlevel
    10bc:	82 e2       	ldi	r24, 0x22	; 34
    10be:	90 e0       	ldi	r25, 0x00	; 0
    10c0:	fc 01       	movw	r30, r24
    10c2:	10 82       	st	Z, r1
	DDRA |= (1<<2);		//выход DIAG
    10c4:	81 e2       	ldi	r24, 0x21	; 33
    10c6:	90 e0       	ldi	r25, 0x00	; 0
    10c8:	21 e2       	ldi	r18, 0x21	; 33
    10ca:	30 e0       	ldi	r19, 0x00	; 0
    10cc:	f9 01       	movw	r30, r18
    10ce:	20 81       	ld	r18, Z
    10d0:	24 60       	ori	r18, 0x04	; 4
    10d2:	fc 01       	movw	r30, r24
    10d4:	20 83       	st	Z, r18
	DDRA &= ~(1<<6);	//вход FAN_INPUT_10
    10d6:	81 e2       	ldi	r24, 0x21	; 33
    10d8:	90 e0       	ldi	r25, 0x00	; 0
    10da:	21 e2       	ldi	r18, 0x21	; 33
    10dc:	30 e0       	ldi	r19, 0x00	; 0
    10de:	f9 01       	movw	r30, r18
    10e0:	20 81       	ld	r18, Z
    10e2:	2f 7b       	andi	r18, 0xBF	; 191
    10e4:	fc 01       	movw	r30, r24
    10e6:	20 83       	st	Z, r18
	DDRA &= ~(1<<7);	//вход FAN_INPUT_9
    10e8:	81 e2       	ldi	r24, 0x21	; 33
    10ea:	90 e0       	ldi	r25, 0x00	; 0
    10ec:	21 e2       	ldi	r18, 0x21	; 33
    10ee:	30 e0       	ldi	r19, 0x00	; 0
    10f0:	f9 01       	movw	r30, r18
    10f2:	20 81       	ld	r18, Z
    10f4:	2f 77       	andi	r18, 0x7F	; 127
    10f6:	fc 01       	movw	r30, r24
    10f8:	20 83       	st	Z, r18
	
	//порт B: FAN_CTRL
	DDRB = 0x00;
    10fa:	84 e2       	ldi	r24, 0x24	; 36
    10fc:	90 e0       	ldi	r25, 0x00	; 0
    10fe:	fc 01       	movw	r30, r24
    1100:	10 82       	st	Z, r1
	PORTB = 0x00;
    1102:	85 e2       	ldi	r24, 0x25	; 37
    1104:	90 e0       	ldi	r25, 0x00	; 0
    1106:	fc 01       	movw	r30, r24
    1108:	10 82       	st	Z, r1
	DDRB |= (1<<5);		//выход FAN_CTRL
    110a:	84 e2       	ldi	r24, 0x24	; 36
    110c:	90 e0       	ldi	r25, 0x00	; 0
    110e:	24 e2       	ldi	r18, 0x24	; 36
    1110:	30 e0       	ldi	r19, 0x00	; 0
    1112:	f9 01       	movw	r30, r18
    1114:	20 81       	ld	r18, Z
    1116:	20 62       	ori	r18, 0x20	; 32
    1118:	fc 01       	movw	r30, r24
    111a:	20 83       	st	Z, r18
	
	//порт C: FAN_INPUT_1..8
	DDRC = 0x00;
    111c:	87 e2       	ldi	r24, 0x27	; 39
    111e:	90 e0       	ldi	r25, 0x00	; 0
    1120:	fc 01       	movw	r30, r24
    1122:	10 82       	st	Z, r1
	PORTC = 0x00;
    1124:	88 e2       	ldi	r24, 0x28	; 40
    1126:	90 e0       	ldi	r25, 0x00	; 0
    1128:	fc 01       	movw	r30, r24
    112a:	10 82       	st	Z, r1
	
	//порт D: CAN, FAN_POWER, HEAT_CHECK_LV
	DDRD = 0x00;
    112c:	8a e2       	ldi	r24, 0x2A	; 42
    112e:	90 e0       	ldi	r25, 0x00	; 0
    1130:	fc 01       	movw	r30, r24
    1132:	10 82       	st	Z, r1
	PORTD = 0x00;
    1134:	8b e2       	ldi	r24, 0x2B	; 43
    1136:	90 e0       	ldi	r25, 0x00	; 0
    1138:	fc 01       	movw	r30, r24
    113a:	10 82       	st	Z, r1
	//DDRD |= (1<<4);	//нахуа?
	DDRD &= ~(1<<5);	//TXCAN
    113c:	8a e2       	ldi	r24, 0x2A	; 42
    113e:	90 e0       	ldi	r25, 0x00	; 0
    1140:	2a e2       	ldi	r18, 0x2A	; 42
    1142:	30 e0       	ldi	r19, 0x00	; 0
    1144:	f9 01       	movw	r30, r18
    1146:	20 81       	ld	r18, Z
    1148:	2f 7d       	andi	r18, 0xDF	; 223
    114a:	fc 01       	movw	r30, r24
    114c:	20 83       	st	Z, r18
	DDRD &= ~(1<<6);	//RXCAN
    114e:	8a e2       	ldi	r24, 0x2A	; 42
    1150:	90 e0       	ldi	r25, 0x00	; 0
    1152:	2a e2       	ldi	r18, 0x2A	; 42
    1154:	30 e0       	ldi	r19, 0x00	; 0
    1156:	f9 01       	movw	r30, r18
    1158:	20 81       	ld	r18, Z
    115a:	2f 7b       	andi	r18, 0xBF	; 191
    115c:	fc 01       	movw	r30, r24
    115e:	20 83       	st	Z, r18
	DDRD |= (1<<7);		//SCAN
    1160:	8a e2       	ldi	r24, 0x2A	; 42
    1162:	90 e0       	ldi	r25, 0x00	; 0
    1164:	2a e2       	ldi	r18, 0x2A	; 42
    1166:	30 e0       	ldi	r19, 0x00	; 0
    1168:	f9 01       	movw	r30, r18
    116a:	20 81       	ld	r18, Z
    116c:	20 68       	ori	r18, 0x80	; 128
    116e:	fc 01       	movw	r30, r24
    1170:	20 83       	st	Z, r18
	DDRD |= (1<<0);		//выход FAN_POWER
    1172:	8a e2       	ldi	r24, 0x2A	; 42
    1174:	90 e0       	ldi	r25, 0x00	; 0
    1176:	2a e2       	ldi	r18, 0x2A	; 42
    1178:	30 e0       	ldi	r19, 0x00	; 0
    117a:	f9 01       	movw	r30, r18
    117c:	20 81       	ld	r18, Z
    117e:	21 60       	ori	r18, 0x01	; 1
    1180:	fc 01       	movw	r30, r24
    1182:	20 83       	st	Z, r18
	DDRD &= ~(1<<2);	//вход HEAT_CHECK_LV
    1184:	8a e2       	ldi	r24, 0x2A	; 42
    1186:	90 e0       	ldi	r25, 0x00	; 0
    1188:	2a e2       	ldi	r18, 0x2A	; 42
    118a:	30 e0       	ldi	r19, 0x00	; 0
    118c:	f9 01       	movw	r30, r18
    118e:	20 81       	ld	r18, Z
    1190:	2b 7f       	andi	r18, 0xFB	; 251
    1192:	fc 01       	movw	r30, r24
    1194:	20 83       	st	Z, r18
	
	//порт F: NTC_LV, Power_measure
	DDRF = 0x00;
    1196:	80 e3       	ldi	r24, 0x30	; 48
    1198:	90 e0       	ldi	r25, 0x00	; 0
    119a:	fc 01       	movw	r30, r24
    119c:	10 82       	st	Z, r1
	PORTF = 0x00;
    119e:	81 e3       	ldi	r24, 0x31	; 49
    11a0:	90 e0       	ldi	r25, 0x00	; 0
    11a2:	fc 01       	movw	r30, r24
    11a4:	10 82       	st	Z, r1
	
	//	Таймер3 для защиты от зависания и отправки статистики
	TCCR3B |= 0b00001000 + 0b101;	//CTC_ON + div1024
    11a6:	81 e9       	ldi	r24, 0x91	; 145
    11a8:	90 e0       	ldi	r25, 0x00	; 0
    11aa:	21 e9       	ldi	r18, 0x91	; 145
    11ac:	30 e0       	ldi	r19, 0x00	; 0
    11ae:	f9 01       	movw	r30, r18
    11b0:	20 81       	ld	r18, Z
    11b2:	2d 60       	ori	r18, 0x0D	; 13
    11b4:	fc 01       	movw	r30, r24
    11b6:	20 83       	st	Z, r18
	OCR3A = 1562;					//100ms
    11b8:	88 e9       	ldi	r24, 0x98	; 152
    11ba:	90 e0       	ldi	r25, 0x00	; 0
    11bc:	2a e1       	ldi	r18, 0x1A	; 26
    11be:	36 e0       	ldi	r19, 0x06	; 6
    11c0:	fc 01       	movw	r30, r24
    11c2:	31 83       	std	Z+1, r19	; 0x01
    11c4:	20 83       	st	Z, r18
	TIMSK3 |= 1 << OCIE3A;			//interrupt if equal
    11c6:	81 e7       	ldi	r24, 0x71	; 113
    11c8:	90 e0       	ldi	r25, 0x00	; 0
    11ca:	21 e7       	ldi	r18, 0x71	; 113
    11cc:	30 e0       	ldi	r19, 0x00	; 0
    11ce:	f9 01       	movw	r30, r18
    11d0:	20 81       	ld	r18, Z
    11d2:	22 60       	ori	r18, 0x02	; 2
    11d4:	fc 01       	movw	r30, r24
    11d6:	20 83       	st	Z, r18
	
	//настройки ШИМ (перебросить на 0С1A готово):
	TCCR1A = 0;
    11d8:	80 e8       	ldi	r24, 0x80	; 128
    11da:	90 e0       	ldi	r25, 0x00	; 0
    11dc:	fc 01       	movw	r30, r24
    11de:	10 82       	st	Z, r1
	TCCR1A |= (1 << COM1A1) | (0 << COM1A0);								//Режим вывода OC1A
    11e0:	80 e8       	ldi	r24, 0x80	; 128
    11e2:	90 e0       	ldi	r25, 0x00	; 0
    11e4:	20 e8       	ldi	r18, 0x80	; 128
    11e6:	30 e0       	ldi	r19, 0x00	; 0
    11e8:	f9 01       	movw	r30, r18
    11ea:	20 81       	ld	r18, Z
    11ec:	20 68       	ori	r18, 0x80	; 128
    11ee:	fc 01       	movw	r30, r24
    11f0:	20 83       	st	Z, r18
	TCCR1A |= (1 << COM1B1) | (0 << COM1B0);								//Режим вывода OC1B
    11f2:	80 e8       	ldi	r24, 0x80	; 128
    11f4:	90 e0       	ldi	r25, 0x00	; 0
    11f6:	20 e8       	ldi	r18, 0x80	; 128
    11f8:	30 e0       	ldi	r19, 0x00	; 0
    11fa:	f9 01       	movw	r30, r18
    11fc:	20 81       	ld	r18, Z
    11fe:	20 62       	ori	r18, 0x20	; 32
    1200:	fc 01       	movw	r30, r24
    1202:	20 83       	st	Z, r18
	TCCR1A |= (1 << WGM13) | (1 << WGM12) | (1 << WGM11) | (0 << WGM10);	//перепроверить ём, дернул с АВВ, но там юзают ICRn в роли уставки частоты
    1204:	80 e8       	ldi	r24, 0x80	; 128
    1206:	90 e0       	ldi	r25, 0x00	; 0
    1208:	20 e8       	ldi	r18, 0x80	; 128
    120a:	30 e0       	ldi	r19, 0x00	; 0
    120c:	f9 01       	movw	r30, r18
    120e:	20 81       	ld	r18, Z
    1210:	2a 61       	ori	r18, 0x1A	; 26
    1212:	fc 01       	movw	r30, r24
    1214:	20 83       	st	Z, r18
	TCCR1B |= (0 << CS12) | (1 << CS11) | (0 << CS10);						//Тактовый сигнал - clk/8
    1216:	81 e8       	ldi	r24, 0x81	; 129
    1218:	90 e0       	ldi	r25, 0x00	; 0
    121a:	21 e8       	ldi	r18, 0x81	; 129
    121c:	30 e0       	ldi	r19, 0x00	; 0
    121e:	f9 01       	movw	r30, r18
    1220:	20 81       	ld	r18, Z
    1222:	22 60       	ori	r18, 0x02	; 2
    1224:	fc 01       	movw	r30, r24
    1226:	20 83       	st	Z, r18
	ICR1 = DEFAULT_PWM_MAX_COUNT;
    1228:	86 e8       	ldi	r24, 0x86	; 134
    122a:	90 e0       	ldi	r25, 0x00	; 0
    122c:	2f ef       	ldi	r18, 0xFF	; 255
    122e:	31 e0       	ldi	r19, 0x01	; 1
    1230:	fc 01       	movw	r30, r24
    1232:	31 83       	std	Z+1, r19	; 0x01
    1234:	20 83       	st	Z, r18
	//TCCR1A |= (1<<WGM01)|(1<<WGM00)|(1<<COM1A0)|(1<<CS01);	//ШИМ неинвертированный prescaler=8 (16*10^6 / 256 / 8 = 7812 Hz)
	//OCR1A = ctrlHalfCached;	// по умолчанию обороты половинные //не работает так как теперь это процентная величина, а не шаги ацп
	
	//настройки АЦП
	ADCSRA = 0;						//сброс регистра АЦП
    1236:	8a e7       	ldi	r24, 0x7A	; 122
    1238:	90 e0       	ldi	r25, 0x00	; 0
    123a:	fc 01       	movw	r30, r24
    123c:	10 82       	st	Z, r1
	ADCSRA |= (1<<ADEN)|(1<<ADSC)|(3<<ADPS0);
    123e:	8a e7       	ldi	r24, 0x7A	; 122
    1240:	90 e0       	ldi	r25, 0x00	; 0
    1242:	2a e7       	ldi	r18, 0x7A	; 122
    1244:	30 e0       	ldi	r19, 0x00	; 0
    1246:	f9 01       	movw	r30, r18
    1248:	20 81       	ld	r18, Z
    124a:	23 6c       	ori	r18, 0xC3	; 195
    124c:	fc 01       	movw	r30, r24
    124e:	20 83       	st	Z, r18
	//ADEN - разрешение работы АЦП
	//ADSC - запуск преобразования
	//ADSP - прескалер 64
}
    1250:	df 91       	pop	r29
    1252:	cf 91       	pop	r28
    1254:	08 95       	ret

00001256 <_Z6setPinhb>:

void setPin(uint8_t ID, bool state)		//задать вывод пина по его ID
{
    1256:	cf 93       	push	r28
    1258:	df 93       	push	r29
    125a:	00 d0       	rcall	.+0      	; 0x125c <_Z6setPinhb+0x6>
    125c:	00 d0       	rcall	.+0      	; 0x125e <_Z6setPinhb+0x8>
    125e:	cd b7       	in	r28, 0x3d	; 61
    1260:	de b7       	in	r29, 0x3e	; 62
    1262:	8b 83       	std	Y+3, r24	; 0x03
    1264:	6c 83       	std	Y+4, r22	; 0x04
	uint8_t port = (ID & 0xF0) >> 4;
    1266:	8b 81       	ldd	r24, Y+3	; 0x03
    1268:	82 95       	swap	r24
    126a:	8f 70       	andi	r24, 0x0F	; 15
    126c:	89 83       	std	Y+1, r24	; 0x01
	uint8_t pin = (ID & 0x0F);
    126e:	8b 81       	ldd	r24, Y+3	; 0x03
    1270:	8f 70       	andi	r24, 0x0F	; 15
    1272:	8a 83       	std	Y+2, r24	; 0x02
	switch (port)
    1274:	89 81       	ldd	r24, Y+1	; 0x01
    1276:	88 2f       	mov	r24, r24
    1278:	90 e0       	ldi	r25, 0x00	; 0
    127a:	8c 30       	cpi	r24, 0x0C	; 12
    127c:	91 05       	cpc	r25, r1
    127e:	09 f4       	brne	.+2      	; 0x1282 <_Z6setPinhb+0x2c>
    1280:	71 c0       	rjmp	.+226    	; 0x1364 <_Z6setPinhb+0x10e>
    1282:	8d 30       	cpi	r24, 0x0D	; 13
    1284:	91 05       	cpc	r25, r1
    1286:	34 f4       	brge	.+12     	; 0x1294 <_Z6setPinhb+0x3e>
    1288:	8a 30       	cpi	r24, 0x0A	; 10
    128a:	91 05       	cpc	r25, r1
    128c:	79 f0       	breq	.+30     	; 0x12ac <_Z6setPinhb+0x56>
    128e:	0b 97       	sbiw	r24, 0x0b	; 11
    1290:	d9 f1       	breq	.+118    	; 0x1308 <_Z6setPinhb+0xb2>
    1292:	20 c1       	rjmp	.+576    	; 0x14d4 <_Z6setPinhb+0x27e>
    1294:	8e 30       	cpi	r24, 0x0E	; 14
    1296:	91 05       	cpc	r25, r1
    1298:	09 f4       	brne	.+2      	; 0x129c <_Z6setPinhb+0x46>
    129a:	c0 c0       	rjmp	.+384    	; 0x141c <_Z6setPinhb+0x1c6>
    129c:	8e 30       	cpi	r24, 0x0E	; 14
    129e:	91 05       	cpc	r25, r1
    12a0:	0c f4       	brge	.+2      	; 0x12a4 <_Z6setPinhb+0x4e>
    12a2:	8e c0       	rjmp	.+284    	; 0x13c0 <_Z6setPinhb+0x16a>
    12a4:	0f 97       	sbiw	r24, 0x0f	; 15
    12a6:	09 f4       	brne	.+2      	; 0x12aa <_Z6setPinhb+0x54>
    12a8:	e7 c0       	rjmp	.+462    	; 0x1478 <_Z6setPinhb+0x222>
    12aa:	14 c1       	rjmp	.+552    	; 0x14d4 <_Z6setPinhb+0x27e>
	{
		case 0x0A:
		if (state) PORTA |= (1 << pin);
    12ac:	8c 81       	ldd	r24, Y+4	; 0x04
    12ae:	88 23       	and	r24, r24
    12b0:	a9 f0       	breq	.+42     	; 0x12dc <_Z6setPinhb+0x86>
    12b2:	82 e2       	ldi	r24, 0x22	; 34
    12b4:	90 e0       	ldi	r25, 0x00	; 0
    12b6:	22 e2       	ldi	r18, 0x22	; 34
    12b8:	30 e0       	ldi	r19, 0x00	; 0
    12ba:	f9 01       	movw	r30, r18
    12bc:	20 81       	ld	r18, Z
    12be:	62 2f       	mov	r22, r18
    12c0:	2a 81       	ldd	r18, Y+2	; 0x02
    12c2:	42 2f       	mov	r20, r18
    12c4:	50 e0       	ldi	r21, 0x00	; 0
    12c6:	21 e0       	ldi	r18, 0x01	; 1
    12c8:	30 e0       	ldi	r19, 0x00	; 0
    12ca:	02 c0       	rjmp	.+4      	; 0x12d0 <_Z6setPinhb+0x7a>
    12cc:	22 0f       	add	r18, r18
    12ce:	33 1f       	adc	r19, r19
    12d0:	4a 95       	dec	r20
    12d2:	e2 f7       	brpl	.-8      	; 0x12cc <_Z6setPinhb+0x76>
    12d4:	26 2b       	or	r18, r22
    12d6:	fc 01       	movw	r30, r24
    12d8:	20 83       	st	Z, r18
		else PORTA &= ~(1 << pin);
		break;
    12da:	fc c0       	rjmp	.+504    	; 0x14d4 <_Z6setPinhb+0x27e>
	uint8_t pin = (ID & 0x0F);
	switch (port)
	{
		case 0x0A:
		if (state) PORTA |= (1 << pin);
		else PORTA &= ~(1 << pin);
    12dc:	82 e2       	ldi	r24, 0x22	; 34
    12de:	90 e0       	ldi	r25, 0x00	; 0
    12e0:	22 e2       	ldi	r18, 0x22	; 34
    12e2:	30 e0       	ldi	r19, 0x00	; 0
    12e4:	f9 01       	movw	r30, r18
    12e6:	20 81       	ld	r18, Z
    12e8:	62 2f       	mov	r22, r18
    12ea:	2a 81       	ldd	r18, Y+2	; 0x02
    12ec:	42 2f       	mov	r20, r18
    12ee:	50 e0       	ldi	r21, 0x00	; 0
    12f0:	21 e0       	ldi	r18, 0x01	; 1
    12f2:	30 e0       	ldi	r19, 0x00	; 0
    12f4:	02 c0       	rjmp	.+4      	; 0x12fa <_Z6setPinhb+0xa4>
    12f6:	22 0f       	add	r18, r18
    12f8:	33 1f       	adc	r19, r19
    12fa:	4a 95       	dec	r20
    12fc:	e2 f7       	brpl	.-8      	; 0x12f6 <_Z6setPinhb+0xa0>
    12fe:	20 95       	com	r18
    1300:	26 23       	and	r18, r22
    1302:	fc 01       	movw	r30, r24
    1304:	20 83       	st	Z, r18
		break;
    1306:	e6 c0       	rjmp	.+460    	; 0x14d4 <_Z6setPinhb+0x27e>
		case 0x0B:
		if (state) PORTB |= (1 << pin);
    1308:	8c 81       	ldd	r24, Y+4	; 0x04
    130a:	88 23       	and	r24, r24
    130c:	a9 f0       	breq	.+42     	; 0x1338 <_Z6setPinhb+0xe2>
    130e:	85 e2       	ldi	r24, 0x25	; 37
    1310:	90 e0       	ldi	r25, 0x00	; 0
    1312:	25 e2       	ldi	r18, 0x25	; 37
    1314:	30 e0       	ldi	r19, 0x00	; 0
    1316:	f9 01       	movw	r30, r18
    1318:	20 81       	ld	r18, Z
    131a:	62 2f       	mov	r22, r18
    131c:	2a 81       	ldd	r18, Y+2	; 0x02
    131e:	42 2f       	mov	r20, r18
    1320:	50 e0       	ldi	r21, 0x00	; 0
    1322:	21 e0       	ldi	r18, 0x01	; 1
    1324:	30 e0       	ldi	r19, 0x00	; 0
    1326:	02 c0       	rjmp	.+4      	; 0x132c <_Z6setPinhb+0xd6>
    1328:	22 0f       	add	r18, r18
    132a:	33 1f       	adc	r19, r19
    132c:	4a 95       	dec	r20
    132e:	e2 f7       	brpl	.-8      	; 0x1328 <_Z6setPinhb+0xd2>
    1330:	26 2b       	or	r18, r22
    1332:	fc 01       	movw	r30, r24
    1334:	20 83       	st	Z, r18
		else PORTB &= ~(1 << pin);
		break;
    1336:	ce c0       	rjmp	.+412    	; 0x14d4 <_Z6setPinhb+0x27e>
		if (state) PORTA |= (1 << pin);
		else PORTA &= ~(1 << pin);
		break;
		case 0x0B:
		if (state) PORTB |= (1 << pin);
		else PORTB &= ~(1 << pin);
    1338:	85 e2       	ldi	r24, 0x25	; 37
    133a:	90 e0       	ldi	r25, 0x00	; 0
    133c:	25 e2       	ldi	r18, 0x25	; 37
    133e:	30 e0       	ldi	r19, 0x00	; 0
    1340:	f9 01       	movw	r30, r18
    1342:	20 81       	ld	r18, Z
    1344:	62 2f       	mov	r22, r18
    1346:	2a 81       	ldd	r18, Y+2	; 0x02
    1348:	42 2f       	mov	r20, r18
    134a:	50 e0       	ldi	r21, 0x00	; 0
    134c:	21 e0       	ldi	r18, 0x01	; 1
    134e:	30 e0       	ldi	r19, 0x00	; 0
    1350:	02 c0       	rjmp	.+4      	; 0x1356 <_Z6setPinhb+0x100>
    1352:	22 0f       	add	r18, r18
    1354:	33 1f       	adc	r19, r19
    1356:	4a 95       	dec	r20
    1358:	e2 f7       	brpl	.-8      	; 0x1352 <_Z6setPinhb+0xfc>
    135a:	20 95       	com	r18
    135c:	26 23       	and	r18, r22
    135e:	fc 01       	movw	r30, r24
    1360:	20 83       	st	Z, r18
		break;
    1362:	b8 c0       	rjmp	.+368    	; 0x14d4 <_Z6setPinhb+0x27e>
		case 0x0C:
		if (state) PORTC |= (1 << pin);
    1364:	8c 81       	ldd	r24, Y+4	; 0x04
    1366:	88 23       	and	r24, r24
    1368:	a9 f0       	breq	.+42     	; 0x1394 <_Z6setPinhb+0x13e>
    136a:	88 e2       	ldi	r24, 0x28	; 40
    136c:	90 e0       	ldi	r25, 0x00	; 0
    136e:	28 e2       	ldi	r18, 0x28	; 40
    1370:	30 e0       	ldi	r19, 0x00	; 0
    1372:	f9 01       	movw	r30, r18
    1374:	20 81       	ld	r18, Z
    1376:	62 2f       	mov	r22, r18
    1378:	2a 81       	ldd	r18, Y+2	; 0x02
    137a:	42 2f       	mov	r20, r18
    137c:	50 e0       	ldi	r21, 0x00	; 0
    137e:	21 e0       	ldi	r18, 0x01	; 1
    1380:	30 e0       	ldi	r19, 0x00	; 0
    1382:	02 c0       	rjmp	.+4      	; 0x1388 <_Z6setPinhb+0x132>
    1384:	22 0f       	add	r18, r18
    1386:	33 1f       	adc	r19, r19
    1388:	4a 95       	dec	r20
    138a:	e2 f7       	brpl	.-8      	; 0x1384 <_Z6setPinhb+0x12e>
    138c:	26 2b       	or	r18, r22
    138e:	fc 01       	movw	r30, r24
    1390:	20 83       	st	Z, r18
		else PORTC &= ~(1 << pin);
		break;
    1392:	a0 c0       	rjmp	.+320    	; 0x14d4 <_Z6setPinhb+0x27e>
		if (state) PORTB |= (1 << pin);
		else PORTB &= ~(1 << pin);
		break;
		case 0x0C:
		if (state) PORTC |= (1 << pin);
		else PORTC &= ~(1 << pin);
    1394:	88 e2       	ldi	r24, 0x28	; 40
    1396:	90 e0       	ldi	r25, 0x00	; 0
    1398:	28 e2       	ldi	r18, 0x28	; 40
    139a:	30 e0       	ldi	r19, 0x00	; 0
    139c:	f9 01       	movw	r30, r18
    139e:	20 81       	ld	r18, Z
    13a0:	62 2f       	mov	r22, r18
    13a2:	2a 81       	ldd	r18, Y+2	; 0x02
    13a4:	42 2f       	mov	r20, r18
    13a6:	50 e0       	ldi	r21, 0x00	; 0
    13a8:	21 e0       	ldi	r18, 0x01	; 1
    13aa:	30 e0       	ldi	r19, 0x00	; 0
    13ac:	02 c0       	rjmp	.+4      	; 0x13b2 <_Z6setPinhb+0x15c>
    13ae:	22 0f       	add	r18, r18
    13b0:	33 1f       	adc	r19, r19
    13b2:	4a 95       	dec	r20
    13b4:	e2 f7       	brpl	.-8      	; 0x13ae <_Z6setPinhb+0x158>
    13b6:	20 95       	com	r18
    13b8:	26 23       	and	r18, r22
    13ba:	fc 01       	movw	r30, r24
    13bc:	20 83       	st	Z, r18
		break;
    13be:	8a c0       	rjmp	.+276    	; 0x14d4 <_Z6setPinhb+0x27e>
		case 0x0D:
		if (state) PORTD |= (1 << pin);
    13c0:	8c 81       	ldd	r24, Y+4	; 0x04
    13c2:	88 23       	and	r24, r24
    13c4:	a9 f0       	breq	.+42     	; 0x13f0 <_Z6setPinhb+0x19a>
    13c6:	8b e2       	ldi	r24, 0x2B	; 43
    13c8:	90 e0       	ldi	r25, 0x00	; 0
    13ca:	2b e2       	ldi	r18, 0x2B	; 43
    13cc:	30 e0       	ldi	r19, 0x00	; 0
    13ce:	f9 01       	movw	r30, r18
    13d0:	20 81       	ld	r18, Z
    13d2:	62 2f       	mov	r22, r18
    13d4:	2a 81       	ldd	r18, Y+2	; 0x02
    13d6:	42 2f       	mov	r20, r18
    13d8:	50 e0       	ldi	r21, 0x00	; 0
    13da:	21 e0       	ldi	r18, 0x01	; 1
    13dc:	30 e0       	ldi	r19, 0x00	; 0
    13de:	02 c0       	rjmp	.+4      	; 0x13e4 <_Z6setPinhb+0x18e>
    13e0:	22 0f       	add	r18, r18
    13e2:	33 1f       	adc	r19, r19
    13e4:	4a 95       	dec	r20
    13e6:	e2 f7       	brpl	.-8      	; 0x13e0 <_Z6setPinhb+0x18a>
    13e8:	26 2b       	or	r18, r22
    13ea:	fc 01       	movw	r30, r24
    13ec:	20 83       	st	Z, r18
		else PORTD &= ~(1 << pin);
		break;
    13ee:	72 c0       	rjmp	.+228    	; 0x14d4 <_Z6setPinhb+0x27e>
		if (state) PORTC |= (1 << pin);
		else PORTC &= ~(1 << pin);
		break;
		case 0x0D:
		if (state) PORTD |= (1 << pin);
		else PORTD &= ~(1 << pin);
    13f0:	8b e2       	ldi	r24, 0x2B	; 43
    13f2:	90 e0       	ldi	r25, 0x00	; 0
    13f4:	2b e2       	ldi	r18, 0x2B	; 43
    13f6:	30 e0       	ldi	r19, 0x00	; 0
    13f8:	f9 01       	movw	r30, r18
    13fa:	20 81       	ld	r18, Z
    13fc:	62 2f       	mov	r22, r18
    13fe:	2a 81       	ldd	r18, Y+2	; 0x02
    1400:	42 2f       	mov	r20, r18
    1402:	50 e0       	ldi	r21, 0x00	; 0
    1404:	21 e0       	ldi	r18, 0x01	; 1
    1406:	30 e0       	ldi	r19, 0x00	; 0
    1408:	02 c0       	rjmp	.+4      	; 0x140e <_Z6setPinhb+0x1b8>
    140a:	22 0f       	add	r18, r18
    140c:	33 1f       	adc	r19, r19
    140e:	4a 95       	dec	r20
    1410:	e2 f7       	brpl	.-8      	; 0x140a <_Z6setPinhb+0x1b4>
    1412:	20 95       	com	r18
    1414:	26 23       	and	r18, r22
    1416:	fc 01       	movw	r30, r24
    1418:	20 83       	st	Z, r18
		break;
    141a:	5c c0       	rjmp	.+184    	; 0x14d4 <_Z6setPinhb+0x27e>
		case 0x0E:
		if (state) PORTE |= (1 << pin);
    141c:	8c 81       	ldd	r24, Y+4	; 0x04
    141e:	88 23       	and	r24, r24
    1420:	a9 f0       	breq	.+42     	; 0x144c <_Z6setPinhb+0x1f6>
    1422:	8e e2       	ldi	r24, 0x2E	; 46
    1424:	90 e0       	ldi	r25, 0x00	; 0
    1426:	2e e2       	ldi	r18, 0x2E	; 46
    1428:	30 e0       	ldi	r19, 0x00	; 0
    142a:	f9 01       	movw	r30, r18
    142c:	20 81       	ld	r18, Z
    142e:	62 2f       	mov	r22, r18
    1430:	2a 81       	ldd	r18, Y+2	; 0x02
    1432:	42 2f       	mov	r20, r18
    1434:	50 e0       	ldi	r21, 0x00	; 0
    1436:	21 e0       	ldi	r18, 0x01	; 1
    1438:	30 e0       	ldi	r19, 0x00	; 0
    143a:	02 c0       	rjmp	.+4      	; 0x1440 <_Z6setPinhb+0x1ea>
    143c:	22 0f       	add	r18, r18
    143e:	33 1f       	adc	r19, r19
    1440:	4a 95       	dec	r20
    1442:	e2 f7       	brpl	.-8      	; 0x143c <_Z6setPinhb+0x1e6>
    1444:	26 2b       	or	r18, r22
    1446:	fc 01       	movw	r30, r24
    1448:	20 83       	st	Z, r18
		else PORTE &= ~(1 << pin);
		break;
    144a:	44 c0       	rjmp	.+136    	; 0x14d4 <_Z6setPinhb+0x27e>
		if (state) PORTD |= (1 << pin);
		else PORTD &= ~(1 << pin);
		break;
		case 0x0E:
		if (state) PORTE |= (1 << pin);
		else PORTE &= ~(1 << pin);
    144c:	8e e2       	ldi	r24, 0x2E	; 46
    144e:	90 e0       	ldi	r25, 0x00	; 0
    1450:	2e e2       	ldi	r18, 0x2E	; 46
    1452:	30 e0       	ldi	r19, 0x00	; 0
    1454:	f9 01       	movw	r30, r18
    1456:	20 81       	ld	r18, Z
    1458:	62 2f       	mov	r22, r18
    145a:	2a 81       	ldd	r18, Y+2	; 0x02
    145c:	42 2f       	mov	r20, r18
    145e:	50 e0       	ldi	r21, 0x00	; 0
    1460:	21 e0       	ldi	r18, 0x01	; 1
    1462:	30 e0       	ldi	r19, 0x00	; 0
    1464:	02 c0       	rjmp	.+4      	; 0x146a <_Z6setPinhb+0x214>
    1466:	22 0f       	add	r18, r18
    1468:	33 1f       	adc	r19, r19
    146a:	4a 95       	dec	r20
    146c:	e2 f7       	brpl	.-8      	; 0x1466 <_Z6setPinhb+0x210>
    146e:	20 95       	com	r18
    1470:	26 23       	and	r18, r22
    1472:	fc 01       	movw	r30, r24
    1474:	20 83       	st	Z, r18
		break;
    1476:	2e c0       	rjmp	.+92     	; 0x14d4 <_Z6setPinhb+0x27e>
		case 0x0F:
		if (state) PORTF |= (1 << pin);
    1478:	8c 81       	ldd	r24, Y+4	; 0x04
    147a:	88 23       	and	r24, r24
    147c:	a9 f0       	breq	.+42     	; 0x14a8 <_Z6setPinhb+0x252>
    147e:	81 e3       	ldi	r24, 0x31	; 49
    1480:	90 e0       	ldi	r25, 0x00	; 0
    1482:	21 e3       	ldi	r18, 0x31	; 49
    1484:	30 e0       	ldi	r19, 0x00	; 0
    1486:	f9 01       	movw	r30, r18
    1488:	20 81       	ld	r18, Z
    148a:	62 2f       	mov	r22, r18
    148c:	2a 81       	ldd	r18, Y+2	; 0x02
    148e:	42 2f       	mov	r20, r18
    1490:	50 e0       	ldi	r21, 0x00	; 0
    1492:	21 e0       	ldi	r18, 0x01	; 1
    1494:	30 e0       	ldi	r19, 0x00	; 0
    1496:	02 c0       	rjmp	.+4      	; 0x149c <_Z6setPinhb+0x246>
    1498:	22 0f       	add	r18, r18
    149a:	33 1f       	adc	r19, r19
    149c:	4a 95       	dec	r20
    149e:	e2 f7       	brpl	.-8      	; 0x1498 <_Z6setPinhb+0x242>
    14a0:	26 2b       	or	r18, r22
    14a2:	fc 01       	movw	r30, r24
    14a4:	20 83       	st	Z, r18
    14a6:	15 c0       	rjmp	.+42     	; 0x14d2 <_Z6setPinhb+0x27c>
		else PORTF &= ~(1 << pin);
    14a8:	81 e3       	ldi	r24, 0x31	; 49
    14aa:	90 e0       	ldi	r25, 0x00	; 0
    14ac:	21 e3       	ldi	r18, 0x31	; 49
    14ae:	30 e0       	ldi	r19, 0x00	; 0
    14b0:	f9 01       	movw	r30, r18
    14b2:	20 81       	ld	r18, Z
    14b4:	62 2f       	mov	r22, r18
    14b6:	2a 81       	ldd	r18, Y+2	; 0x02
    14b8:	42 2f       	mov	r20, r18
    14ba:	50 e0       	ldi	r21, 0x00	; 0
    14bc:	21 e0       	ldi	r18, 0x01	; 1
    14be:	30 e0       	ldi	r19, 0x00	; 0
    14c0:	02 c0       	rjmp	.+4      	; 0x14c6 <_Z6setPinhb+0x270>
    14c2:	22 0f       	add	r18, r18
    14c4:	33 1f       	adc	r19, r19
    14c6:	4a 95       	dec	r20
    14c8:	e2 f7       	brpl	.-8      	; 0x14c2 <_Z6setPinhb+0x26c>
    14ca:	20 95       	com	r18
    14cc:	26 23       	and	r18, r22
    14ce:	fc 01       	movw	r30, r24
    14d0:	20 83       	st	Z, r18
		break;
    14d2:	00 00       	nop
	}
}
    14d4:	0f 90       	pop	r0
    14d6:	0f 90       	pop	r0
    14d8:	0f 90       	pop	r0
    14da:	0f 90       	pop	r0
    14dc:	df 91       	pop	r29
    14de:	cf 91       	pop	r28
    14e0:	08 95       	ret

000014e2 <_Z6getPinh>:

bool getPin(uint8_t ID)		//считать состояние пина по его ID
{
    14e2:	cf 93       	push	r28
    14e4:	df 93       	push	r29
    14e6:	00 d0       	rcall	.+0      	; 0x14e8 <_Z6getPinh+0x6>
    14e8:	1f 92       	push	r1
    14ea:	cd b7       	in	r28, 0x3d	; 61
    14ec:	de b7       	in	r29, 0x3e	; 62
    14ee:	8b 83       	std	Y+3, r24	; 0x03
	uint8_t port = (ID & 0xF0) >> 4;
    14f0:	8b 81       	ldd	r24, Y+3	; 0x03
    14f2:	82 95       	swap	r24
    14f4:	8f 70       	andi	r24, 0x0F	; 15
    14f6:	89 83       	std	Y+1, r24	; 0x01
	uint8_t pin = (ID & 0x0F);
    14f8:	8b 81       	ldd	r24, Y+3	; 0x03
    14fa:	8f 70       	andi	r24, 0x0F	; 15
    14fc:	8a 83       	std	Y+2, r24	; 0x02
	switch (port)
    14fe:	89 81       	ldd	r24, Y+1	; 0x01
    1500:	88 2f       	mov	r24, r24
    1502:	90 e0       	ldi	r25, 0x00	; 0
    1504:	8c 30       	cpi	r24, 0x0C	; 12
    1506:	91 05       	cpc	r25, r1
    1508:	09 f4       	brne	.+2      	; 0x150c <_Z6getPinh+0x2a>
    150a:	5d c0       	rjmp	.+186    	; 0x15c6 <_Z6getPinh+0xe4>
    150c:	8d 30       	cpi	r24, 0x0D	; 13
    150e:	91 05       	cpc	r25, r1
    1510:	34 f4       	brge	.+12     	; 0x151e <_Z6getPinh+0x3c>
    1512:	8a 30       	cpi	r24, 0x0A	; 10
    1514:	91 05       	cpc	r25, r1
    1516:	79 f0       	breq	.+30     	; 0x1536 <_Z6getPinh+0x54>
    1518:	0b 97       	sbiw	r24, 0x0b	; 11
    151a:	89 f1       	breq	.+98     	; 0x157e <_Z6getPinh+0x9c>
    151c:	e2 c0       	rjmp	.+452    	; 0x16e2 <_Z6getPinh+0x200>
    151e:	8e 30       	cpi	r24, 0x0E	; 14
    1520:	91 05       	cpc	r25, r1
    1522:	09 f4       	brne	.+2      	; 0x1526 <_Z6getPinh+0x44>
    1524:	98 c0       	rjmp	.+304    	; 0x1656 <_Z6getPinh+0x174>
    1526:	8e 30       	cpi	r24, 0x0E	; 14
    1528:	91 05       	cpc	r25, r1
    152a:	0c f4       	brge	.+2      	; 0x152e <_Z6getPinh+0x4c>
    152c:	70 c0       	rjmp	.+224    	; 0x160e <_Z6getPinh+0x12c>
    152e:	0f 97       	sbiw	r24, 0x0f	; 15
    1530:	09 f4       	brne	.+2      	; 0x1534 <_Z6getPinh+0x52>
    1532:	b4 c0       	rjmp	.+360    	; 0x169c <_Z6getPinh+0x1ba>
    1534:	d6 c0       	rjmp	.+428    	; 0x16e2 <_Z6getPinh+0x200>
	{
		case 0x0A:
		return ((1 << pin) & PINA) >> pin; //значение PAn
    1536:	8a 81       	ldd	r24, Y+2	; 0x02
    1538:	28 2f       	mov	r18, r24
    153a:	30 e0       	ldi	r19, 0x00	; 0
    153c:	81 e0       	ldi	r24, 0x01	; 1
    153e:	90 e0       	ldi	r25, 0x00	; 0
    1540:	ac 01       	movw	r20, r24
    1542:	02 c0       	rjmp	.+4      	; 0x1548 <_Z6getPinh+0x66>
    1544:	44 0f       	add	r20, r20
    1546:	55 1f       	adc	r21, r21
    1548:	2a 95       	dec	r18
    154a:	e2 f7       	brpl	.-8      	; 0x1544 <_Z6getPinh+0x62>
    154c:	9a 01       	movw	r18, r20
    154e:	80 e2       	ldi	r24, 0x20	; 32
    1550:	90 e0       	ldi	r25, 0x00	; 0
    1552:	fc 01       	movw	r30, r24
    1554:	80 81       	ld	r24, Z
    1556:	88 2f       	mov	r24, r24
    1558:	90 e0       	ldi	r25, 0x00	; 0
    155a:	82 23       	and	r24, r18
    155c:	93 23       	and	r25, r19
    155e:	2a 81       	ldd	r18, Y+2	; 0x02
    1560:	22 2f       	mov	r18, r18
    1562:	30 e0       	ldi	r19, 0x00	; 0
    1564:	ac 01       	movw	r20, r24
    1566:	02 c0       	rjmp	.+4      	; 0x156c <_Z6getPinh+0x8a>
    1568:	55 95       	asr	r21
    156a:	47 95       	ror	r20
    156c:	2a 95       	dec	r18
    156e:	e2 f7       	brpl	.-8      	; 0x1568 <_Z6getPinh+0x86>
    1570:	9a 01       	movw	r18, r20
    1572:	81 e0       	ldi	r24, 0x01	; 1
    1574:	23 2b       	or	r18, r19
    1576:	09 f0       	breq	.+2      	; 0x157a <_Z6getPinh+0x98>
    1578:	b5 c0       	rjmp	.+362    	; 0x16e4 <_Z6getPinh+0x202>
    157a:	80 e0       	ldi	r24, 0x00	; 0
    157c:	b3 c0       	rjmp	.+358    	; 0x16e4 <_Z6getPinh+0x202>
		break;
		case 0x0B:
		return ((1 << pin) & PINB) >> pin;
    157e:	8a 81       	ldd	r24, Y+2	; 0x02
    1580:	28 2f       	mov	r18, r24
    1582:	30 e0       	ldi	r19, 0x00	; 0
    1584:	81 e0       	ldi	r24, 0x01	; 1
    1586:	90 e0       	ldi	r25, 0x00	; 0
    1588:	fc 01       	movw	r30, r24
    158a:	02 c0       	rjmp	.+4      	; 0x1590 <_Z6getPinh+0xae>
    158c:	ee 0f       	add	r30, r30
    158e:	ff 1f       	adc	r31, r31
    1590:	2a 95       	dec	r18
    1592:	e2 f7       	brpl	.-8      	; 0x158c <_Z6getPinh+0xaa>
    1594:	9f 01       	movw	r18, r30
    1596:	83 e2       	ldi	r24, 0x23	; 35
    1598:	90 e0       	ldi	r25, 0x00	; 0
    159a:	fc 01       	movw	r30, r24
    159c:	80 81       	ld	r24, Z
    159e:	88 2f       	mov	r24, r24
    15a0:	90 e0       	ldi	r25, 0x00	; 0
    15a2:	82 23       	and	r24, r18
    15a4:	93 23       	and	r25, r19
    15a6:	2a 81       	ldd	r18, Y+2	; 0x02
    15a8:	22 2f       	mov	r18, r18
    15aa:	30 e0       	ldi	r19, 0x00	; 0
    15ac:	ac 01       	movw	r20, r24
    15ae:	02 c0       	rjmp	.+4      	; 0x15b4 <_Z6getPinh+0xd2>
    15b0:	55 95       	asr	r21
    15b2:	47 95       	ror	r20
    15b4:	2a 95       	dec	r18
    15b6:	e2 f7       	brpl	.-8      	; 0x15b0 <_Z6getPinh+0xce>
    15b8:	9a 01       	movw	r18, r20
    15ba:	81 e0       	ldi	r24, 0x01	; 1
    15bc:	23 2b       	or	r18, r19
    15be:	09 f0       	breq	.+2      	; 0x15c2 <_Z6getPinh+0xe0>
    15c0:	91 c0       	rjmp	.+290    	; 0x16e4 <_Z6getPinh+0x202>
    15c2:	80 e0       	ldi	r24, 0x00	; 0
    15c4:	8f c0       	rjmp	.+286    	; 0x16e4 <_Z6getPinh+0x202>
		break;
		case 0x0C:
		return ((1 << pin) & PINC) >> pin;
    15c6:	8a 81       	ldd	r24, Y+2	; 0x02
    15c8:	28 2f       	mov	r18, r24
    15ca:	30 e0       	ldi	r19, 0x00	; 0
    15cc:	81 e0       	ldi	r24, 0x01	; 1
    15ce:	90 e0       	ldi	r25, 0x00	; 0
    15d0:	fc 01       	movw	r30, r24
    15d2:	02 c0       	rjmp	.+4      	; 0x15d8 <_Z6getPinh+0xf6>
    15d4:	ee 0f       	add	r30, r30
    15d6:	ff 1f       	adc	r31, r31
    15d8:	2a 95       	dec	r18
    15da:	e2 f7       	brpl	.-8      	; 0x15d4 <_Z6getPinh+0xf2>
    15dc:	9f 01       	movw	r18, r30
    15de:	86 e2       	ldi	r24, 0x26	; 38
    15e0:	90 e0       	ldi	r25, 0x00	; 0
    15e2:	fc 01       	movw	r30, r24
    15e4:	80 81       	ld	r24, Z
    15e6:	88 2f       	mov	r24, r24
    15e8:	90 e0       	ldi	r25, 0x00	; 0
    15ea:	82 23       	and	r24, r18
    15ec:	93 23       	and	r25, r19
    15ee:	2a 81       	ldd	r18, Y+2	; 0x02
    15f0:	22 2f       	mov	r18, r18
    15f2:	30 e0       	ldi	r19, 0x00	; 0
    15f4:	ac 01       	movw	r20, r24
    15f6:	02 c0       	rjmp	.+4      	; 0x15fc <_Z6getPinh+0x11a>
    15f8:	55 95       	asr	r21
    15fa:	47 95       	ror	r20
    15fc:	2a 95       	dec	r18
    15fe:	e2 f7       	brpl	.-8      	; 0x15f8 <_Z6getPinh+0x116>
    1600:	9a 01       	movw	r18, r20
    1602:	81 e0       	ldi	r24, 0x01	; 1
    1604:	23 2b       	or	r18, r19
    1606:	09 f0       	breq	.+2      	; 0x160a <_Z6getPinh+0x128>
    1608:	6d c0       	rjmp	.+218    	; 0x16e4 <_Z6getPinh+0x202>
    160a:	80 e0       	ldi	r24, 0x00	; 0
    160c:	6b c0       	rjmp	.+214    	; 0x16e4 <_Z6getPinh+0x202>
		break;
		case 0x0D:
		return ((1 << pin) & PIND) >> pin;
    160e:	8a 81       	ldd	r24, Y+2	; 0x02
    1610:	28 2f       	mov	r18, r24
    1612:	30 e0       	ldi	r19, 0x00	; 0
    1614:	81 e0       	ldi	r24, 0x01	; 1
    1616:	90 e0       	ldi	r25, 0x00	; 0
    1618:	fc 01       	movw	r30, r24
    161a:	02 c0       	rjmp	.+4      	; 0x1620 <_Z6getPinh+0x13e>
    161c:	ee 0f       	add	r30, r30
    161e:	ff 1f       	adc	r31, r31
    1620:	2a 95       	dec	r18
    1622:	e2 f7       	brpl	.-8      	; 0x161c <_Z6getPinh+0x13a>
    1624:	9f 01       	movw	r18, r30
    1626:	89 e2       	ldi	r24, 0x29	; 41
    1628:	90 e0       	ldi	r25, 0x00	; 0
    162a:	fc 01       	movw	r30, r24
    162c:	80 81       	ld	r24, Z
    162e:	88 2f       	mov	r24, r24
    1630:	90 e0       	ldi	r25, 0x00	; 0
    1632:	82 23       	and	r24, r18
    1634:	93 23       	and	r25, r19
    1636:	2a 81       	ldd	r18, Y+2	; 0x02
    1638:	22 2f       	mov	r18, r18
    163a:	30 e0       	ldi	r19, 0x00	; 0
    163c:	ac 01       	movw	r20, r24
    163e:	02 c0       	rjmp	.+4      	; 0x1644 <_Z6getPinh+0x162>
    1640:	55 95       	asr	r21
    1642:	47 95       	ror	r20
    1644:	2a 95       	dec	r18
    1646:	e2 f7       	brpl	.-8      	; 0x1640 <_Z6getPinh+0x15e>
    1648:	9a 01       	movw	r18, r20
    164a:	81 e0       	ldi	r24, 0x01	; 1
    164c:	23 2b       	or	r18, r19
    164e:	09 f0       	breq	.+2      	; 0x1652 <_Z6getPinh+0x170>
    1650:	49 c0       	rjmp	.+146    	; 0x16e4 <_Z6getPinh+0x202>
    1652:	80 e0       	ldi	r24, 0x00	; 0
    1654:	47 c0       	rjmp	.+142    	; 0x16e4 <_Z6getPinh+0x202>
		break;
		case 0x0E:
		return ((1 << pin) & PINE) >> pin;
    1656:	8a 81       	ldd	r24, Y+2	; 0x02
    1658:	28 2f       	mov	r18, r24
    165a:	30 e0       	ldi	r19, 0x00	; 0
    165c:	81 e0       	ldi	r24, 0x01	; 1
    165e:	90 e0       	ldi	r25, 0x00	; 0
    1660:	fc 01       	movw	r30, r24
    1662:	02 c0       	rjmp	.+4      	; 0x1668 <_Z6getPinh+0x186>
    1664:	ee 0f       	add	r30, r30
    1666:	ff 1f       	adc	r31, r31
    1668:	2a 95       	dec	r18
    166a:	e2 f7       	brpl	.-8      	; 0x1664 <_Z6getPinh+0x182>
    166c:	9f 01       	movw	r18, r30
    166e:	8c e2       	ldi	r24, 0x2C	; 44
    1670:	90 e0       	ldi	r25, 0x00	; 0
    1672:	fc 01       	movw	r30, r24
    1674:	80 81       	ld	r24, Z
    1676:	88 2f       	mov	r24, r24
    1678:	90 e0       	ldi	r25, 0x00	; 0
    167a:	82 23       	and	r24, r18
    167c:	93 23       	and	r25, r19
    167e:	2a 81       	ldd	r18, Y+2	; 0x02
    1680:	22 2f       	mov	r18, r18
    1682:	30 e0       	ldi	r19, 0x00	; 0
    1684:	ac 01       	movw	r20, r24
    1686:	02 c0       	rjmp	.+4      	; 0x168c <_Z6getPinh+0x1aa>
    1688:	55 95       	asr	r21
    168a:	47 95       	ror	r20
    168c:	2a 95       	dec	r18
    168e:	e2 f7       	brpl	.-8      	; 0x1688 <_Z6getPinh+0x1a6>
    1690:	9a 01       	movw	r18, r20
    1692:	81 e0       	ldi	r24, 0x01	; 1
    1694:	23 2b       	or	r18, r19
    1696:	31 f5       	brne	.+76     	; 0x16e4 <_Z6getPinh+0x202>
    1698:	80 e0       	ldi	r24, 0x00	; 0
    169a:	24 c0       	rjmp	.+72     	; 0x16e4 <_Z6getPinh+0x202>
		break;
		case 0x0F:
		return ((1 << pin) & PINF) >> pin;
    169c:	8a 81       	ldd	r24, Y+2	; 0x02
    169e:	28 2f       	mov	r18, r24
    16a0:	30 e0       	ldi	r19, 0x00	; 0
    16a2:	81 e0       	ldi	r24, 0x01	; 1
    16a4:	90 e0       	ldi	r25, 0x00	; 0
    16a6:	fc 01       	movw	r30, r24
    16a8:	02 c0       	rjmp	.+4      	; 0x16ae <_Z6getPinh+0x1cc>
    16aa:	ee 0f       	add	r30, r30
    16ac:	ff 1f       	adc	r31, r31
    16ae:	2a 95       	dec	r18
    16b0:	e2 f7       	brpl	.-8      	; 0x16aa <_Z6getPinh+0x1c8>
    16b2:	9f 01       	movw	r18, r30
    16b4:	8f e2       	ldi	r24, 0x2F	; 47
    16b6:	90 e0       	ldi	r25, 0x00	; 0
    16b8:	fc 01       	movw	r30, r24
    16ba:	80 81       	ld	r24, Z
    16bc:	88 2f       	mov	r24, r24
    16be:	90 e0       	ldi	r25, 0x00	; 0
    16c0:	82 23       	and	r24, r18
    16c2:	93 23       	and	r25, r19
    16c4:	2a 81       	ldd	r18, Y+2	; 0x02
    16c6:	22 2f       	mov	r18, r18
    16c8:	30 e0       	ldi	r19, 0x00	; 0
    16ca:	ac 01       	movw	r20, r24
    16cc:	02 c0       	rjmp	.+4      	; 0x16d2 <_Z6getPinh+0x1f0>
    16ce:	55 95       	asr	r21
    16d0:	47 95       	ror	r20
    16d2:	2a 95       	dec	r18
    16d4:	e2 f7       	brpl	.-8      	; 0x16ce <_Z6getPinh+0x1ec>
    16d6:	9a 01       	movw	r18, r20
    16d8:	81 e0       	ldi	r24, 0x01	; 1
    16da:	23 2b       	or	r18, r19
    16dc:	19 f4       	brne	.+6      	; 0x16e4 <_Z6getPinh+0x202>
    16de:	80 e0       	ldi	r24, 0x00	; 0
    16e0:	01 c0       	rjmp	.+2      	; 0x16e4 <_Z6getPinh+0x202>
		break;
	}
	return 0;
    16e2:	80 e0       	ldi	r24, 0x00	; 0
}
    16e4:	0f 90       	pop	r0
    16e6:	0f 90       	pop	r0
    16e8:	0f 90       	pop	r0
    16ea:	df 91       	pop	r29
    16ec:	cf 91       	pop	r28
    16ee:	08 95       	ret

000016f0 <_Z5areadh>:

unsigned int aread(uint8_t ID)		//чтение АЦП с порта F, в аргументе номер пина
{
    16f0:	cf 93       	push	r28
    16f2:	df 93       	push	r29
    16f4:	00 d0       	rcall	.+0      	; 0x16f6 <_Z5areadh+0x6>
    16f6:	1f 92       	push	r1
    16f8:	cd b7       	in	r28, 0x3d	; 61
    16fa:	de b7       	in	r29, 0x3e	; 62
    16fc:	8b 83       	std	Y+3, r24	; 0x03
	uint8_t port = (ID & 0xF0) >> 4;
    16fe:	8b 81       	ldd	r24, Y+3	; 0x03
    1700:	82 95       	swap	r24
    1702:	8f 70       	andi	r24, 0x0F	; 15
    1704:	89 83       	std	Y+1, r24	; 0x01
	uint8_t pin = (ID & 0x0F);
    1706:	8b 81       	ldd	r24, Y+3	; 0x03
    1708:	8f 70       	andi	r24, 0x0F	; 15
    170a:	8a 83       	std	Y+2, r24	; 0x02
	
	if (port == 0x0F && pin < 8)
    170c:	89 81       	ldd	r24, Y+1	; 0x01
    170e:	8f 30       	cpi	r24, 0x0F	; 15
    1710:	31 f5       	brne	.+76     	; 0x175e <_Z5areadh+0x6e>
    1712:	8a 81       	ldd	r24, Y+2	; 0x02
    1714:	88 30       	cpi	r24, 0x08	; 8
    1716:	18 f5       	brcc	.+70     	; 0x175e <_Z5areadh+0x6e>
	{
		ADMUX = pin;					//задаю пин
    1718:	8c e7       	ldi	r24, 0x7C	; 124
    171a:	90 e0       	ldi	r25, 0x00	; 0
    171c:	2a 81       	ldd	r18, Y+2	; 0x02
    171e:	fc 01       	movw	r30, r24
    1720:	20 83       	st	Z, r18
		ADCSRA |= (1 << ADSC);			//запуск преобразования
    1722:	8a e7       	ldi	r24, 0x7A	; 122
    1724:	90 e0       	ldi	r25, 0x00	; 0
    1726:	2a e7       	ldi	r18, 0x7A	; 122
    1728:	30 e0       	ldi	r19, 0x00	; 0
    172a:	f9 01       	movw	r30, r18
    172c:	20 81       	ld	r18, Z
    172e:	20 64       	ori	r18, 0x40	; 64
    1730:	fc 01       	movw	r30, r24
    1732:	20 83       	st	Z, r18
		while ((1 << ADSC) & ADCSRA);	//ожидаем выставления ADSC 0
    1734:	00 00       	nop
    1736:	8a e7       	ldi	r24, 0x7A	; 122
    1738:	90 e0       	ldi	r25, 0x00	; 0
    173a:	fc 01       	movw	r30, r24
    173c:	80 81       	ld	r24, Z
    173e:	88 2f       	mov	r24, r24
    1740:	90 e0       	ldi	r25, 0x00	; 0
    1742:	80 74       	andi	r24, 0x40	; 64
    1744:	99 27       	eor	r25, r25
    1746:	21 e0       	ldi	r18, 0x01	; 1
    1748:	89 2b       	or	r24, r25
    174a:	09 f4       	brne	.+2      	; 0x174e <_Z5areadh+0x5e>
    174c:	20 e0       	ldi	r18, 0x00	; 0
    174e:	22 23       	and	r18, r18
    1750:	91 f7       	brne	.-28     	; 0x1736 <_Z5areadh+0x46>
		return ADC;						//возвращаем значение ацп 0..1023
    1752:	88 e7       	ldi	r24, 0x78	; 120
    1754:	90 e0       	ldi	r25, 0x00	; 0
    1756:	fc 01       	movw	r30, r24
    1758:	80 81       	ld	r24, Z
    175a:	91 81       	ldd	r25, Z+1	; 0x01
    175c:	02 c0       	rjmp	.+4      	; 0x1762 <_Z5areadh+0x72>
	}
	return 0xFFFF;						//возвращаем код ошибки
    175e:	8f ef       	ldi	r24, 0xFF	; 255
    1760:	9f ef       	ldi	r25, 0xFF	; 255
}
    1762:	0f 90       	pop	r0
    1764:	0f 90       	pop	r0
    1766:	0f 90       	pop	r0
    1768:	df 91       	pop	r29
    176a:	cf 91       	pop	r28
    176c:	08 95       	ret

0000176e <_Z13setDrivePowerh>:

void setDrivePower(uint8_t powerPercent)	//Установка скорости вращения движков, шим инвертирован
{
    176e:	cf 93       	push	r28
    1770:	df 93       	push	r29
    1772:	cd b7       	in	r28, 0x3d	; 61
    1774:	de b7       	in	r29, 0x3e	; 62
    1776:	29 97       	sbiw	r28, 0x09	; 9
    1778:	0f b6       	in	r0, 0x3f	; 63
    177a:	f8 94       	cli
    177c:	de bf       	out	0x3e, r29	; 62
    177e:	0f be       	out	0x3f, r0	; 63
    1780:	cd bf       	out	0x3d, r28	; 61
    1782:	8d 83       	std	Y+5, r24	; 0x05
	if (powerPercent > 100) powerPercent = 0;
    1784:	8d 81       	ldd	r24, Y+5	; 0x05
    1786:	85 36       	cpi	r24, 0x65	; 101
    1788:	08 f0       	brcs	.+2      	; 0x178c <_Z13setDrivePowerh+0x1e>
    178a:	1d 82       	std	Y+5, r1	; 0x05
	//powerPercent = 100 - powerPercent;
	if (powerPercent == 100)
    178c:	8d 81       	ldd	r24, Y+5	; 0x05
    178e:	84 36       	cpi	r24, 0x64	; 100
    1790:	99 f4       	brne	.+38     	; 0x17b8 <_Z13setDrivePowerh+0x4a>
	{
		TCCR1A &= ~(1 << COM1A1);				//замыкание на 1 если 100%
    1792:	80 e8       	ldi	r24, 0x80	; 128
    1794:	90 e0       	ldi	r25, 0x00	; 0
    1796:	20 e8       	ldi	r18, 0x80	; 128
    1798:	30 e0       	ldi	r19, 0x00	; 0
    179a:	f9 01       	movw	r30, r18
    179c:	20 81       	ld	r18, Z
    179e:	2f 77       	andi	r18, 0x7F	; 127
    17a0:	fc 01       	movw	r30, r24
    17a2:	20 83       	st	Z, r18
		PORTB |= (1 << 5);
    17a4:	85 e2       	ldi	r24, 0x25	; 37
    17a6:	90 e0       	ldi	r25, 0x00	; 0
    17a8:	25 e2       	ldi	r18, 0x25	; 37
    17aa:	30 e0       	ldi	r19, 0x00	; 0
    17ac:	f9 01       	movw	r30, r18
    17ae:	20 81       	ld	r18, Z
    17b0:	20 62       	ori	r18, 0x20	; 32
    17b2:	fc 01       	movw	r30, r24
    17b4:	20 83       	st	Z, r18
    17b6:	28 c0       	rjmp	.+80     	; 0x1808 <_Z13setDrivePowerh+0x9a>
	}
	else if (powerPercent == 0)
    17b8:	8d 81       	ldd	r24, Y+5	; 0x05
    17ba:	88 23       	and	r24, r24
    17bc:	99 f4       	brne	.+38     	; 0x17e4 <_Z13setDrivePowerh+0x76>
	{
		TCCR1A &= ~(1 << COM1A1);				//замыкание на 0 если 0%
    17be:	80 e8       	ldi	r24, 0x80	; 128
    17c0:	90 e0       	ldi	r25, 0x00	; 0
    17c2:	20 e8       	ldi	r18, 0x80	; 128
    17c4:	30 e0       	ldi	r19, 0x00	; 0
    17c6:	f9 01       	movw	r30, r18
    17c8:	20 81       	ld	r18, Z
    17ca:	2f 77       	andi	r18, 0x7F	; 127
    17cc:	fc 01       	movw	r30, r24
    17ce:	20 83       	st	Z, r18
		PORTB &= ~(1 << 5);
    17d0:	85 e2       	ldi	r24, 0x25	; 37
    17d2:	90 e0       	ldi	r25, 0x00	; 0
    17d4:	25 e2       	ldi	r18, 0x25	; 37
    17d6:	30 e0       	ldi	r19, 0x00	; 0
    17d8:	f9 01       	movw	r30, r18
    17da:	20 81       	ld	r18, Z
    17dc:	2f 7d       	andi	r18, 0xDF	; 223
    17de:	fc 01       	movw	r30, r24
    17e0:	20 83       	st	Z, r18
    17e2:	12 c0       	rjmp	.+36     	; 0x1808 <_Z13setDrivePowerh+0x9a>
	}
	else
	{
		PORTB &= ~(1 << 5);
    17e4:	85 e2       	ldi	r24, 0x25	; 37
    17e6:	90 e0       	ldi	r25, 0x00	; 0
    17e8:	25 e2       	ldi	r18, 0x25	; 37
    17ea:	30 e0       	ldi	r19, 0x00	; 0
    17ec:	f9 01       	movw	r30, r18
    17ee:	20 81       	ld	r18, Z
    17f0:	2f 7d       	andi	r18, 0xDF	; 223
    17f2:	fc 01       	movw	r30, r24
    17f4:	20 83       	st	Z, r18
		TCCR1A |= (1 << COM1A1);				//штатная работа
    17f6:	80 e8       	ldi	r24, 0x80	; 128
    17f8:	90 e0       	ldi	r25, 0x00	; 0
    17fa:	20 e8       	ldi	r18, 0x80	; 128
    17fc:	30 e0       	ldi	r19, 0x00	; 0
    17fe:	f9 01       	movw	r30, r18
    1800:	20 81       	ld	r18, Z
    1802:	20 68       	ori	r18, 0x80	; 128
    1804:	fc 01       	movw	r30, r24
    1806:	20 83       	st	Z, r18
	}
	uint32_t raw = DEFAULT_PWM_MAX_COUNT;
    1808:	8f ef       	ldi	r24, 0xFF	; 255
    180a:	91 e0       	ldi	r25, 0x01	; 1
    180c:	a0 e0       	ldi	r26, 0x00	; 0
    180e:	b0 e0       	ldi	r27, 0x00	; 0
    1810:	89 83       	std	Y+1, r24	; 0x01
    1812:	9a 83       	std	Y+2, r25	; 0x02
    1814:	ab 83       	std	Y+3, r26	; 0x03
    1816:	bc 83       	std	Y+4, r27	; 0x04
	raw *= powerPercent;
    1818:	8d 81       	ldd	r24, Y+5	; 0x05
    181a:	88 2f       	mov	r24, r24
    181c:	90 e0       	ldi	r25, 0x00	; 0
    181e:	a0 e0       	ldi	r26, 0x00	; 0
    1820:	b0 e0       	ldi	r27, 0x00	; 0
    1822:	29 81       	ldd	r18, Y+1	; 0x01
    1824:	3a 81       	ldd	r19, Y+2	; 0x02
    1826:	4b 81       	ldd	r20, Y+3	; 0x03
    1828:	5c 81       	ldd	r21, Y+4	; 0x04
    182a:	bc 01       	movw	r22, r24
    182c:	cd 01       	movw	r24, r26
    182e:	dd d6       	rcall	.+3514   	; 0x25ea <__mulsi3>
    1830:	dc 01       	movw	r26, r24
    1832:	cb 01       	movw	r24, r22
    1834:	89 83       	std	Y+1, r24	; 0x01
    1836:	9a 83       	std	Y+2, r25	; 0x02
    1838:	ab 83       	std	Y+3, r26	; 0x03
    183a:	bc 83       	std	Y+4, r27	; 0x04
	raw /= 100;
    183c:	89 81       	ldd	r24, Y+1	; 0x01
    183e:	9a 81       	ldd	r25, Y+2	; 0x02
    1840:	ab 81       	ldd	r26, Y+3	; 0x03
    1842:	bc 81       	ldd	r27, Y+4	; 0x04
    1844:	24 e6       	ldi	r18, 0x64	; 100
    1846:	30 e0       	ldi	r19, 0x00	; 0
    1848:	40 e0       	ldi	r20, 0x00	; 0
    184a:	50 e0       	ldi	r21, 0x00	; 0
    184c:	bc 01       	movw	r22, r24
    184e:	cd 01       	movw	r24, r26
    1850:	ef d6       	rcall	.+3550   	; 0x2630 <__udivmodsi4>
    1852:	da 01       	movw	r26, r20
    1854:	c9 01       	movw	r24, r18
    1856:	89 83       	std	Y+1, r24	; 0x01
    1858:	9a 83       	std	Y+2, r25	; 0x02
    185a:	ab 83       	std	Y+3, r26	; 0x03
    185c:	bc 83       	std	Y+4, r27	; 0x04
	OCR1A = raw;
    185e:	88 e8       	ldi	r24, 0x88	; 136
    1860:	90 e0       	ldi	r25, 0x00	; 0
    1862:	29 81       	ldd	r18, Y+1	; 0x01
    1864:	3a 81       	ldd	r19, Y+2	; 0x02
    1866:	fc 01       	movw	r30, r24
    1868:	31 83       	std	Z+1, r19	; 0x01
    186a:	20 83       	st	Z, r18
	
}
    186c:	29 96       	adiw	r28, 0x09	; 9
    186e:	0f b6       	in	r0, 0x3f	; 63
    1870:	f8 94       	cli
    1872:	de bf       	out	0x3e, r29	; 62
    1874:	0f be       	out	0x3f, r0	; 63
    1876:	cd bf       	out	0x3d, r28	; 61
    1878:	df 91       	pop	r29
    187a:	cf 91       	pop	r28
    187c:	08 95       	ret

0000187e <_Z6readFBh>:

//логика
bool readFB(uint8_t n)	//чтение текущего значения на fb, n - номер движка начиная с 1
{
    187e:	cf 93       	push	r28
    1880:	df 93       	push	r29
    1882:	1f 92       	push	r1
    1884:	cd b7       	in	r28, 0x3d	; 61
    1886:	de b7       	in	r29, 0x3e	; 62
    1888:	89 83       	std	Y+1, r24	; 0x01
	if ((n > 0)&&(n < 9))
    188a:	89 81       	ldd	r24, Y+1	; 0x01
    188c:	88 23       	and	r24, r24
    188e:	39 f0       	breq	.+14     	; 0x189e <_Z6readFBh+0x20>
    1890:	89 81       	ldd	r24, Y+1	; 0x01
    1892:	89 30       	cpi	r24, 0x09	; 9
    1894:	20 f4       	brcc	.+8      	; 0x189e <_Z6readFBh+0x20>
	{
		return getPin(0xC0 + n-1); //значение PCn
    1896:	89 81       	ldd	r24, Y+1	; 0x01
    1898:	81 54       	subi	r24, 0x41	; 65
    189a:	23 de       	rcall	.-954    	; 0x14e2 <_Z6getPinh>
    189c:	0d c0       	rjmp	.+26     	; 0x18b8 <_Z6readFBh+0x3a>
	}
	else if (n == 9)
    189e:	89 81       	ldd	r24, Y+1	; 0x01
    18a0:	89 30       	cpi	r24, 0x09	; 9
    18a2:	19 f4       	brne	.+6      	; 0x18aa <_Z6readFBh+0x2c>
	{
		return getPin(0xA7);	//значение PA7
    18a4:	87 ea       	ldi	r24, 0xA7	; 167
    18a6:	1d de       	rcall	.-966    	; 0x14e2 <_Z6getPinh>
    18a8:	07 c0       	rjmp	.+14     	; 0x18b8 <_Z6readFBh+0x3a>
	}
	else if (n == 10)
    18aa:	89 81       	ldd	r24, Y+1	; 0x01
    18ac:	8a 30       	cpi	r24, 0x0A	; 10
    18ae:	19 f4       	brne	.+6      	; 0x18b6 <_Z6readFBh+0x38>
	{
		return getPin(0xA6);	//значение PA6
    18b0:	86 ea       	ldi	r24, 0xA6	; 166
    18b2:	17 de       	rcall	.-978    	; 0x14e2 <_Z6getPinh>
    18b4:	01 c0       	rjmp	.+2      	; 0x18b8 <_Z6readFBh+0x3a>
	}
	return 0;
    18b6:	80 e0       	ldi	r24, 0x00	; 0
}
    18b8:	0f 90       	pop	r0
    18ba:	df 91       	pop	r29
    18bc:	cf 91       	pop	r28
    18be:	08 95       	ret

000018c0 <_Z8check_fbv>:

void check_fb ()				//Проверка корректности обратной связи
{
    18c0:	0f 93       	push	r16
    18c2:	1f 93       	push	r17
    18c4:	cf 93       	push	r28
    18c6:	df 93       	push	r29
    18c8:	cd b7       	in	r28, 0x3d	; 61
    18ca:	de b7       	in	r29, 0x3e	; 62
    18cc:	27 97       	sbiw	r28, 0x07	; 7
    18ce:	0f b6       	in	r0, 0x3f	; 63
    18d0:	f8 94       	cli
    18d2:	de bf       	out	0x3e, r29	; 62
    18d4:	0f be       	out	0x3f, r0	; 63
    18d6:	cd bf       	out	0x3d, r28	; 61
	counter = 1;						//т.к. первый замер является триггером, то сразу считаем, что он случился
    18d8:	81 e0       	ldi	r24, 0x01	; 1
    18da:	80 93 66 05 	sts	0x0566, r24	; 0x800566 <counter>
	zamer = readFB(fanNum);				//делаем замер
    18de:	80 91 4c 05 	lds	r24, 0x054C	; 0x80054c <fanNum>
    18e2:	cd df       	rcall	.-102    	; 0x187e <_Z6readFBh>
    18e4:	80 93 4d 05 	sts	0x054D, r24	; 0x80054d <zamer>
	while (readFB(fanNum) == zamer) if (TCNT3 > 1500) break;	//ждем фронта
    18e8:	0d c0       	rjmp	.+26     	; 0x1904 <_Z8check_fbv+0x44>
    18ea:	84 e9       	ldi	r24, 0x94	; 148
    18ec:	90 e0       	ldi	r25, 0x00	; 0
    18ee:	fc 01       	movw	r30, r24
    18f0:	80 81       	ld	r24, Z
    18f2:	91 81       	ldd	r25, Z+1	; 0x01
    18f4:	21 e0       	ldi	r18, 0x01	; 1
    18f6:	8d 3d       	cpi	r24, 0xDD	; 221
    18f8:	95 40       	sbci	r25, 0x05	; 5
    18fa:	08 f4       	brcc	.+2      	; 0x18fe <_Z8check_fbv+0x3e>
    18fc:	20 e0       	ldi	r18, 0x00	; 0
    18fe:	22 23       	and	r18, r18
    1900:	09 f0       	breq	.+2      	; 0x1904 <_Z8check_fbv+0x44>
    1902:	10 c0       	rjmp	.+32     	; 0x1924 <_Z8check_fbv+0x64>
    1904:	80 91 4c 05 	lds	r24, 0x054C	; 0x80054c <fanNum>
    1908:	ba df       	rcall	.-140    	; 0x187e <_Z6readFBh>
    190a:	28 2f       	mov	r18, r24
    190c:	30 e0       	ldi	r19, 0x00	; 0
    190e:	80 91 4d 05 	lds	r24, 0x054D	; 0x80054d <zamer>
    1912:	88 2f       	mov	r24, r24
    1914:	90 e0       	ldi	r25, 0x00	; 0
    1916:	41 e0       	ldi	r20, 0x01	; 1
    1918:	28 17       	cp	r18, r24
    191a:	39 07       	cpc	r19, r25
    191c:	09 f0       	breq	.+2      	; 0x1920 <_Z8check_fbv+0x60>
    191e:	40 e0       	ldi	r20, 0x00	; 0
    1920:	44 23       	and	r20, r20
    1922:	19 f7       	brne	.-58     	; 0x18ea <_Z8check_fbv+0x2a>
	point = TCNT3;						//запоминаем состояние таймера на момент первого фронта
    1924:	84 e9       	ldi	r24, 0x94	; 148
    1926:	90 e0       	ldi	r25, 0x00	; 0
    1928:	fc 01       	movw	r30, r24
    192a:	80 81       	ld	r24, Z
    192c:	91 81       	ldd	r25, Z+1	; 0x01
    192e:	90 93 68 05 	sts	0x0568, r25	; 0x800568 <point+0x1>
    1932:	80 93 67 05 	sts	0x0567, r24	; 0x800567 <point>
	zamer = !zamer;						//т.к. был фронт, то состояние замера поменялось
    1936:	90 91 4d 05 	lds	r25, 0x054D	; 0x80054d <zamer>
    193a:	81 e0       	ldi	r24, 0x01	; 1
    193c:	99 23       	and	r25, r25
    193e:	09 f0       	breq	.+2      	; 0x1942 <_Z8check_fbv+0x82>
    1940:	80 e0       	ldi	r24, 0x00	; 0
    1942:	80 93 4d 05 	sts	0x054D, r24	; 0x80054d <zamer>
	while (counter < 10)				//отсчитываем еще 9 фронтов (5 полных оборотов)
    1946:	2a c0       	rjmp	.+84     	; 0x199c <_Z8check_fbv+0xdc>
	{
		if (readFB(fanNum) != zamer)
    1948:	80 91 4c 05 	lds	r24, 0x054C	; 0x80054c <fanNum>
    194c:	98 df       	rcall	.-208    	; 0x187e <_Z6readFBh>
    194e:	28 2f       	mov	r18, r24
    1950:	30 e0       	ldi	r19, 0x00	; 0
    1952:	80 91 4d 05 	lds	r24, 0x054D	; 0x80054d <zamer>
    1956:	88 2f       	mov	r24, r24
    1958:	90 e0       	ldi	r25, 0x00	; 0
    195a:	41 e0       	ldi	r20, 0x01	; 1
    195c:	28 17       	cp	r18, r24
    195e:	39 07       	cpc	r19, r25
    1960:	09 f4       	brne	.+2      	; 0x1964 <_Z8check_fbv+0xa4>
    1962:	40 e0       	ldi	r20, 0x00	; 0
    1964:	44 23       	and	r20, r20
    1966:	69 f0       	breq	.+26     	; 0x1982 <_Z8check_fbv+0xc2>
		{
			counter++;
    1968:	80 91 66 05 	lds	r24, 0x0566	; 0x800566 <counter>
    196c:	8f 5f       	subi	r24, 0xFF	; 255
    196e:	80 93 66 05 	sts	0x0566, r24	; 0x800566 <counter>
			zamer = !zamer;
    1972:	90 91 4d 05 	lds	r25, 0x054D	; 0x80054d <zamer>
    1976:	81 e0       	ldi	r24, 0x01	; 1
    1978:	99 23       	and	r25, r25
    197a:	09 f0       	breq	.+2      	; 0x197e <_Z8check_fbv+0xbe>
    197c:	80 e0       	ldi	r24, 0x00	; 0
    197e:	80 93 4d 05 	sts	0x054D, r24	; 0x80054d <zamer>
		}
		if (TCNT3 > TCNT_limit) break;		//защита от зависания если движок крутит менее 5 оборотов за 1500 тактов (за 100мс)
    1982:	84 e9       	ldi	r24, 0x94	; 148
    1984:	90 e0       	ldi	r25, 0x00	; 0
    1986:	fc 01       	movw	r30, r24
    1988:	80 81       	ld	r24, Z
    198a:	91 81       	ldd	r25, Z+1	; 0x01
    198c:	21 e0       	ldi	r18, 0x01	; 1
    198e:	8d 3d       	cpi	r24, 0xDD	; 221
    1990:	95 40       	sbci	r25, 0x05	; 5
    1992:	08 f4       	brcc	.+2      	; 0x1996 <_Z8check_fbv+0xd6>
    1994:	20 e0       	ldi	r18, 0x00	; 0
    1996:	22 23       	and	r18, r18
    1998:	09 f0       	breq	.+2      	; 0x199c <_Z8check_fbv+0xdc>
    199a:	04 c0       	rjmp	.+8      	; 0x19a4 <_Z8check_fbv+0xe4>
	counter = 1;						//т.к. первый замер является триггером, то сразу считаем, что он случился
	zamer = readFB(fanNum);				//делаем замер
	while (readFB(fanNum) == zamer) if (TCNT3 > 1500) break;	//ждем фронта
	point = TCNT3;						//запоминаем состояние таймера на момент первого фронта
	zamer = !zamer;						//т.к. был фронт, то состояние замера поменялось
	while (counter < 10)				//отсчитываем еще 9 фронтов (5 полных оборотов)
    199c:	80 91 66 05 	lds	r24, 0x0566	; 0x800566 <counter>
    19a0:	8a 30       	cpi	r24, 0x0A	; 10
    19a2:	90 f2       	brcs	.-92     	; 0x1948 <_Z8check_fbv+0x88>
			zamer = !zamer;
		}
		if (TCNT3 > TCNT_limit) break;		//защита от зависания если движок крутит менее 5 оборотов за 1500 тактов (за 100мс)
	}
		
	if (TCNT3 < TCNT_limit)					//если 5 оборотов длились меньше 1500 тактов (обороты выше 50об/с)
    19a4:	84 e9       	ldi	r24, 0x94	; 148
    19a6:	90 e0       	ldi	r25, 0x00	; 0
    19a8:	fc 01       	movw	r30, r24
    19aa:	80 81       	ld	r24, Z
    19ac:	91 81       	ldd	r25, Z+1	; 0x01
    19ae:	21 e0       	ldi	r18, 0x01	; 1
    19b0:	8c 3d       	cpi	r24, 0xDC	; 220
    19b2:	95 40       	sbci	r25, 0x05	; 5
    19b4:	08 f0       	brcs	.+2      	; 0x19b8 <_Z8check_fbv+0xf8>
    19b6:	20 e0       	ldi	r18, 0x00	; 0
    19b8:	22 23       	and	r18, r18
    19ba:	39 f1       	breq	.+78     	; 0x1a0a <_Z8check_fbv+0x14a>
	{
		fbMas[fanNum] = int(/*156200*/140000/(TCNT3-point)/4);	//то вычисляем обороты в секунду и записываем в массив
    19bc:	80 91 4c 05 	lds	r24, 0x054C	; 0x80054c <fanNum>
    19c0:	08 2f       	mov	r16, r24
    19c2:	10 e0       	ldi	r17, 0x00	; 0
    19c4:	84 e9       	ldi	r24, 0x94	; 148
    19c6:	90 e0       	ldi	r25, 0x00	; 0
    19c8:	fc 01       	movw	r30, r24
    19ca:	20 81       	ld	r18, Z
    19cc:	31 81       	ldd	r19, Z+1	; 0x01
    19ce:	80 91 67 05 	lds	r24, 0x0567	; 0x800567 <point>
    19d2:	90 91 68 05 	lds	r25, 0x0568	; 0x800568 <point+0x1>
    19d6:	a9 01       	movw	r20, r18
    19d8:	48 1b       	sub	r20, r24
    19da:	59 0b       	sbc	r21, r25
    19dc:	ca 01       	movw	r24, r20
    19de:	9c 01       	movw	r18, r24
    19e0:	40 e0       	ldi	r20, 0x00	; 0
    19e2:	50 e0       	ldi	r21, 0x00	; 0
    19e4:	88 eb       	ldi	r24, 0xB8	; 184
    19e6:	98 e8       	ldi	r25, 0x88	; 136
    19e8:	a0 e0       	ldi	r26, 0x00	; 0
    19ea:	b0 e0       	ldi	r27, 0x00	; 0
    19ec:	bc 01       	movw	r22, r24
    19ee:	cd 01       	movw	r24, r26
    19f0:	41 d6       	rcall	.+3202   	; 0x2674 <__divmodsi4>
    19f2:	da 01       	movw	r26, r20
    19f4:	c9 01       	movw	r24, r18
    19f6:	9c 01       	movw	r18, r24
    19f8:	c8 01       	movw	r24, r16
    19fa:	88 0f       	add	r24, r24
    19fc:	99 1f       	adc	r25, r25
    19fe:	80 5b       	subi	r24, 0xB0	; 176
    1a00:	9a 4f       	sbci	r25, 0xFA	; 250
    1a02:	fc 01       	movw	r30, r24
    1a04:	31 83       	std	Z+1, r19	; 0x01
    1a06:	20 83       	st	Z, r18
    1a08:	0b c0       	rjmp	.+22     	; 0x1a20 <_Z8check_fbv+0x160>
	}
	else
	{
		fbMas[fanNum] = 0;								//иначе записываем в массив остановку движка
    1a0a:	80 91 4c 05 	lds	r24, 0x054C	; 0x80054c <fanNum>
    1a0e:	88 2f       	mov	r24, r24
    1a10:	90 e0       	ldi	r25, 0x00	; 0
    1a12:	88 0f       	add	r24, r24
    1a14:	99 1f       	adc	r25, r25
    1a16:	80 5b       	subi	r24, 0xB0	; 176
    1a18:	9a 4f       	sbci	r25, 0xFA	; 250
    1a1a:	fc 01       	movw	r30, r24
    1a1c:	11 82       	std	Z+1, r1	; 0x01
    1a1e:	10 82       	st	Z, r1
	}
	fanNum++;											//в слудующем прерывании будем смотреть обороты следующего движка
    1a20:	80 91 4c 05 	lds	r24, 0x054C	; 0x80054c <fanNum>
    1a24:	8f 5f       	subi	r24, 0xFF	; 255
    1a26:	80 93 4c 05 	sts	0x054C, r24	; 0x80054c <fanNum>
	if (fanNum > 10) fanNum = 1;						//если движки кончились, начинаем с первого
    1a2a:	80 91 4c 05 	lds	r24, 0x054C	; 0x80054c <fanNum>
    1a2e:	8b 30       	cpi	r24, 0x0B	; 11
    1a30:	18 f0       	brcs	.+6      	; 0x1a38 <_Z8check_fbv+0x178>
    1a32:	81 e0       	ldi	r24, 0x01	; 1
    1a34:	80 93 4c 05 	sts	0x054C, r24	; 0x80054c <fanNum>
	
	
	/***************		ОБРАБОТКА ОШИБОК ПО ОБРАТКЕ			********************/
	
	uint16_t fanMask = 0;
    1a38:	1b 82       	std	Y+3, r1	; 0x03
    1a3a:	1a 82       	std	Y+2, r1	; 0x02
	fanMask = fanMaskLCached + (fanMaskHCached<<8);	//склеиваем кэшированные значения в одну маску
    1a3c:	80 91 b9 05 	lds	r24, 0x05B9	; 0x8005b9 <fanMaskLCached>
    1a40:	28 2f       	mov	r18, r24
    1a42:	30 e0       	ldi	r19, 0x00	; 0
    1a44:	80 91 ba 05 	lds	r24, 0x05BA	; 0x8005ba <fanMaskHCached>
    1a48:	88 2f       	mov	r24, r24
    1a4a:	90 e0       	ldi	r25, 0x00	; 0
    1a4c:	98 2f       	mov	r25, r24
    1a4e:	88 27       	eor	r24, r24
    1a50:	82 0f       	add	r24, r18
    1a52:	93 1f       	adc	r25, r19
    1a54:	9b 83       	std	Y+3, r25	; 0x03
    1a56:	8a 83       	std	Y+2, r24	; 0x02
	for (uint8_t j = 1; j<=10; j++) if ( ((current_state == HALF)||(current_state == FULL)) && ((fanMask>>(j-1))&1) )	//j<=10 для десяти движков
    1a58:	81 e0       	ldi	r24, 0x01	; 1
    1a5a:	89 83       	std	Y+1, r24	; 0x01
    1a5c:	b7 c0       	rjmp	.+366    	; 0x1bcc <_Z8check_fbv+0x30c>
    1a5e:	80 91 6d 05 	lds	r24, 0x056D	; 0x80056d <current_state>
    1a62:	81 30       	cpi	r24, 0x01	; 1
    1a64:	29 f0       	breq	.+10     	; 0x1a70 <_Z8check_fbv+0x1b0>
    1a66:	80 91 6d 05 	lds	r24, 0x056D	; 0x80056d <current_state>
    1a6a:	82 30       	cpi	r24, 0x02	; 2
    1a6c:	09 f0       	breq	.+2      	; 0x1a70 <_Z8check_fbv+0x1b0>
    1a6e:	ab c0       	rjmp	.+342    	; 0x1bc6 <_Z8check_fbv+0x306>
    1a70:	89 81       	ldd	r24, Y+1	; 0x01
    1a72:	88 2f       	mov	r24, r24
    1a74:	90 e0       	ldi	r25, 0x00	; 0
    1a76:	9c 01       	movw	r18, r24
    1a78:	21 50       	subi	r18, 0x01	; 1
    1a7a:	31 09       	sbc	r19, r1
    1a7c:	8a 81       	ldd	r24, Y+2	; 0x02
    1a7e:	9b 81       	ldd	r25, Y+3	; 0x03
    1a80:	02 c0       	rjmp	.+4      	; 0x1a86 <_Z8check_fbv+0x1c6>
    1a82:	96 95       	lsr	r25
    1a84:	87 95       	ror	r24
    1a86:	2a 95       	dec	r18
    1a88:	e2 f7       	brpl	.-8      	; 0x1a82 <_Z8check_fbv+0x1c2>
    1a8a:	81 70       	andi	r24, 0x01	; 1
    1a8c:	99 27       	eor	r25, r25
    1a8e:	89 2b       	or	r24, r25
    1a90:	09 f4       	brne	.+2      	; 0x1a94 <_Z8check_fbv+0x1d4>
    1a92:	99 c0       	rjmp	.+306    	; 0x1bc6 <_Z8check_fbv+0x306>
	if (fbCheckerCached)			//если чекаем диапазон оборотов
    1a94:	80 91 b3 05 	lds	r24, 0x05B3	; 0x8005b3 <fbCheckerCached>
    1a98:	88 23       	and	r24, r24
    1a9a:	09 f4       	brne	.+2      	; 0x1a9e <_Z8check_fbv+0x1de>
    1a9c:	7c c0       	rjmp	.+248    	; 0x1b96 <_Z8check_fbv+0x2d6>
	{
		if ((current_state == HALF) && !((fbMas[j] >= (fbHalfCached - fbAccuracyCached)) && (fbMas[j] <= (fbHalfCached + fbAccuracyCached))))	//обороты не соответствуют режиму. варнинги-это нормально.
    1a9e:	80 91 6d 05 	lds	r24, 0x056D	; 0x80056d <current_state>
    1aa2:	81 30       	cpi	r24, 0x01	; 1
    1aa4:	b1 f5       	brne	.+108    	; 0x1b12 <_Z8check_fbv+0x252>
    1aa6:	89 81       	ldd	r24, Y+1	; 0x01
    1aa8:	88 2f       	mov	r24, r24
    1aaa:	90 e0       	ldi	r25, 0x00	; 0
    1aac:	88 0f       	add	r24, r24
    1aae:	99 1f       	adc	r25, r25
    1ab0:	80 5b       	subi	r24, 0xB0	; 176
    1ab2:	9a 4f       	sbci	r25, 0xFA	; 250
    1ab4:	fc 01       	movw	r30, r24
    1ab6:	80 81       	ld	r24, Z
    1ab8:	91 81       	ldd	r25, Z+1	; 0x01
    1aba:	20 91 b0 05 	lds	r18, 0x05B0	; 0x8005b0 <fbHalfCached>
    1abe:	42 2f       	mov	r20, r18
    1ac0:	50 e0       	ldi	r21, 0x00	; 0
    1ac2:	20 91 b2 05 	lds	r18, 0x05B2	; 0x8005b2 <fbAccuracyCached>
    1ac6:	22 2f       	mov	r18, r18
    1ac8:	30 e0       	ldi	r19, 0x00	; 0
    1aca:	ba 01       	movw	r22, r20
    1acc:	62 1b       	sub	r22, r18
    1ace:	73 0b       	sbc	r23, r19
    1ad0:	9b 01       	movw	r18, r22
    1ad2:	82 17       	cp	r24, r18
    1ad4:	93 07       	cpc	r25, r19
    1ad6:	b8 f0       	brcs	.+46     	; 0x1b06 <_Z8check_fbv+0x246>
    1ad8:	89 81       	ldd	r24, Y+1	; 0x01
    1ada:	88 2f       	mov	r24, r24
    1adc:	90 e0       	ldi	r25, 0x00	; 0
    1ade:	88 0f       	add	r24, r24
    1ae0:	99 1f       	adc	r25, r25
    1ae2:	80 5b       	subi	r24, 0xB0	; 176
    1ae4:	9a 4f       	sbci	r25, 0xFA	; 250
    1ae6:	fc 01       	movw	r30, r24
    1ae8:	80 81       	ld	r24, Z
    1aea:	91 81       	ldd	r25, Z+1	; 0x01
    1aec:	20 91 b0 05 	lds	r18, 0x05B0	; 0x8005b0 <fbHalfCached>
    1af0:	42 2f       	mov	r20, r18
    1af2:	50 e0       	ldi	r21, 0x00	; 0
    1af4:	20 91 b2 05 	lds	r18, 0x05B2	; 0x8005b2 <fbAccuracyCached>
    1af8:	22 2f       	mov	r18, r18
    1afa:	30 e0       	ldi	r19, 0x00	; 0
    1afc:	24 0f       	add	r18, r20
    1afe:	35 1f       	adc	r19, r21
    1b00:	28 17       	cp	r18, r24
    1b02:	39 07       	cpc	r19, r25
    1b04:	30 f4       	brcc	.+12     	; 0x1b12 <_Z8check_fbv+0x252>
		{
			err_FAN_dismatch.iterate();
    1b06:	8e e7       	ldi	r24, 0x7E	; 126
    1b08:	95 e0       	ldi	r25, 0x05	; 5
    1b0a:	ef d8       	rcall	.-3618   	; 0xcea <_ZN6Errors7iterateEv>
			j = 11;
    1b0c:	8b e0       	ldi	r24, 0x0B	; 11
    1b0e:	89 83       	std	Y+1, r24	; 0x01
    1b10:	41 c0       	rjmp	.+130    	; 0x1b94 <_Z8check_fbv+0x2d4>
		}
		else if ((current_state == FULL) && !((fbMas[j] >= (fbFullCached - fbAccuracyCached)) && (fbMas[j] <= (fbFullCached + fbAccuracyCached))))
    1b12:	80 91 6d 05 	lds	r24, 0x056D	; 0x80056d <current_state>
    1b16:	82 30       	cpi	r24, 0x02	; 2
    1b18:	b1 f5       	brne	.+108    	; 0x1b86 <_Z8check_fbv+0x2c6>
    1b1a:	89 81       	ldd	r24, Y+1	; 0x01
    1b1c:	88 2f       	mov	r24, r24
    1b1e:	90 e0       	ldi	r25, 0x00	; 0
    1b20:	88 0f       	add	r24, r24
    1b22:	99 1f       	adc	r25, r25
    1b24:	80 5b       	subi	r24, 0xB0	; 176
    1b26:	9a 4f       	sbci	r25, 0xFA	; 250
    1b28:	fc 01       	movw	r30, r24
    1b2a:	80 81       	ld	r24, Z
    1b2c:	91 81       	ldd	r25, Z+1	; 0x01
    1b2e:	20 91 b1 05 	lds	r18, 0x05B1	; 0x8005b1 <fbFullCached>
    1b32:	42 2f       	mov	r20, r18
    1b34:	50 e0       	ldi	r21, 0x00	; 0
    1b36:	20 91 b2 05 	lds	r18, 0x05B2	; 0x8005b2 <fbAccuracyCached>
    1b3a:	22 2f       	mov	r18, r18
    1b3c:	30 e0       	ldi	r19, 0x00	; 0
    1b3e:	ba 01       	movw	r22, r20
    1b40:	62 1b       	sub	r22, r18
    1b42:	73 0b       	sbc	r23, r19
    1b44:	9b 01       	movw	r18, r22
    1b46:	82 17       	cp	r24, r18
    1b48:	93 07       	cpc	r25, r19
    1b4a:	b8 f0       	brcs	.+46     	; 0x1b7a <_Z8check_fbv+0x2ba>
    1b4c:	89 81       	ldd	r24, Y+1	; 0x01
    1b4e:	88 2f       	mov	r24, r24
    1b50:	90 e0       	ldi	r25, 0x00	; 0
    1b52:	88 0f       	add	r24, r24
    1b54:	99 1f       	adc	r25, r25
    1b56:	80 5b       	subi	r24, 0xB0	; 176
    1b58:	9a 4f       	sbci	r25, 0xFA	; 250
    1b5a:	fc 01       	movw	r30, r24
    1b5c:	80 81       	ld	r24, Z
    1b5e:	91 81       	ldd	r25, Z+1	; 0x01
    1b60:	20 91 b1 05 	lds	r18, 0x05B1	; 0x8005b1 <fbFullCached>
    1b64:	42 2f       	mov	r20, r18
    1b66:	50 e0       	ldi	r21, 0x00	; 0
    1b68:	20 91 b2 05 	lds	r18, 0x05B2	; 0x8005b2 <fbAccuracyCached>
    1b6c:	22 2f       	mov	r18, r18
    1b6e:	30 e0       	ldi	r19, 0x00	; 0
    1b70:	24 0f       	add	r18, r20
    1b72:	35 1f       	adc	r19, r21
    1b74:	28 17       	cp	r18, r24
    1b76:	39 07       	cpc	r19, r25
    1b78:	30 f4       	brcc	.+12     	; 0x1b86 <_Z8check_fbv+0x2c6>
		{
			err_FAN_dismatch.iterate();
    1b7a:	8e e7       	ldi	r24, 0x7E	; 126
    1b7c:	95 e0       	ldi	r25, 0x05	; 5
    1b7e:	b5 d8       	rcall	.-3734   	; 0xcea <_ZN6Errors7iterateEv>
			j = 11;
    1b80:	8b e0       	ldi	r24, 0x0B	; 11
    1b82:	89 83       	std	Y+1, r24	; 0x01
    1b84:	07 c0       	rjmp	.+14     	; 0x1b94 <_Z8check_fbv+0x2d4>
		}
		else if (j == 10) err_FAN_dismatch.reset(); //j=10 для десяти
    1b86:	89 81       	ldd	r24, Y+1	; 0x01
    1b88:	8a 30       	cpi	r24, 0x0A	; 10
    1b8a:	e9 f4       	brne	.+58     	; 0x1bc6 <_Z8check_fbv+0x306>
    1b8c:	8e e7       	ldi	r24, 0x7E	; 126
    1b8e:	95 e0       	ldi	r25, 0x05	; 5
    1b90:	d2 d8       	rcall	.-3676   	; 0xd36 <_ZN6Errors5resetEv>
    1b92:	19 c0       	rjmp	.+50     	; 0x1bc6 <_Z8check_fbv+0x306>
    1b94:	18 c0       	rjmp	.+48     	; 0x1bc6 <_Z8check_fbv+0x306>
	}
	else		//если чекаем только факт вращения
	{
		if (fbMas[j] == 0)	//обороты не соответствуют режиму. варнинги-это нормально.
    1b96:	89 81       	ldd	r24, Y+1	; 0x01
    1b98:	88 2f       	mov	r24, r24
    1b9a:	90 e0       	ldi	r25, 0x00	; 0
    1b9c:	88 0f       	add	r24, r24
    1b9e:	99 1f       	adc	r25, r25
    1ba0:	80 5b       	subi	r24, 0xB0	; 176
    1ba2:	9a 4f       	sbci	r25, 0xFA	; 250
    1ba4:	fc 01       	movw	r30, r24
    1ba6:	80 81       	ld	r24, Z
    1ba8:	91 81       	ldd	r25, Z+1	; 0x01
    1baa:	89 2b       	or	r24, r25
    1bac:	31 f4       	brne	.+12     	; 0x1bba <_Z8check_fbv+0x2fa>
		{
			err_FAN_dismatch.iterate();
    1bae:	8e e7       	ldi	r24, 0x7E	; 126
    1bb0:	95 e0       	ldi	r25, 0x05	; 5
    1bb2:	9b d8       	rcall	.-3786   	; 0xcea <_ZN6Errors7iterateEv>
			j = 11;
    1bb4:	8b e0       	ldi	r24, 0x0B	; 11
    1bb6:	89 83       	std	Y+1, r24	; 0x01
    1bb8:	06 c0       	rjmp	.+12     	; 0x1bc6 <_Z8check_fbv+0x306>
		}
		else if (j == 10) err_FAN_dismatch.reset(); //j=10 для десяти
    1bba:	89 81       	ldd	r24, Y+1	; 0x01
    1bbc:	8a 30       	cpi	r24, 0x0A	; 10
    1bbe:	19 f4       	brne	.+6      	; 0x1bc6 <_Z8check_fbv+0x306>
    1bc0:	8e e7       	ldi	r24, 0x7E	; 126
    1bc2:	95 e0       	ldi	r25, 0x05	; 5
    1bc4:	b8 d8       	rcall	.-3728   	; 0xd36 <_ZN6Errors5resetEv>
	
	/***************		ОБРАБОТКА ОШИБОК ПО ОБРАТКЕ			********************/
	
	uint16_t fanMask = 0;
	fanMask = fanMaskLCached + (fanMaskHCached<<8);	//склеиваем кэшированные значения в одну маску
	for (uint8_t j = 1; j<=10; j++) if ( ((current_state == HALF)||(current_state == FULL)) && ((fanMask>>(j-1))&1) )	//j<=10 для десяти движков
    1bc6:	89 81       	ldd	r24, Y+1	; 0x01
    1bc8:	8f 5f       	subi	r24, 0xFF	; 255
    1bca:	89 83       	std	Y+1, r24	; 0x01
    1bcc:	89 81       	ldd	r24, Y+1	; 0x01
    1bce:	8b 30       	cpi	r24, 0x0B	; 11
    1bd0:	08 f4       	brcc	.+2      	; 0x1bd4 <_Z8check_fbv+0x314>
    1bd2:	45 cf       	rjmp	.-374    	; 0x1a5e <_Z8check_fbv+0x19e>
			err_FAN_dismatch.iterate();
			j = 11;
		}
		else if (j == 10) err_FAN_dismatch.reset(); //j=10 для десяти
	}
}
    1bd4:	27 96       	adiw	r28, 0x07	; 7
    1bd6:	0f b6       	in	r0, 0x3f	; 63
    1bd8:	f8 94       	cli
    1bda:	de bf       	out	0x3e, r29	; 62
    1bdc:	0f be       	out	0x3f, r0	; 63
    1bde:	cd bf       	out	0x3d, r28	; 61
    1be0:	df 91       	pop	r29
    1be2:	cf 91       	pop	r28
    1be4:	1f 91       	pop	r17
    1be6:	0f 91       	pop	r16
    1be8:	08 95       	ret

00001bea <_Z15checkFanVoltagev>:

void checkFanVoltage ()			//Замер напряжения на ежах
{
    1bea:	cf 93       	push	r28
    1bec:	df 93       	push	r29
    1bee:	cd b7       	in	r28, 0x3d	; 61
    1bf0:	de b7       	in	r29, 0x3e	; 62
	if (aread(pin_Power_measure)/4 < minFanVoltCached) err_undervolt.iterate();
    1bf2:	83 ef       	ldi	r24, 0xF3	; 243
    1bf4:	7d dd       	rcall	.-1286   	; 0x16f0 <_Z5areadh>
    1bf6:	9c 01       	movw	r18, r24
    1bf8:	36 95       	lsr	r19
    1bfa:	27 95       	ror	r18
    1bfc:	36 95       	lsr	r19
    1bfe:	27 95       	ror	r18
    1c00:	80 91 b6 05 	lds	r24, 0x05B6	; 0x8005b6 <minFanVoltCached>
    1c04:	88 2f       	mov	r24, r24
    1c06:	90 e0       	ldi	r25, 0x00	; 0
    1c08:	41 e0       	ldi	r20, 0x01	; 1
    1c0a:	28 17       	cp	r18, r24
    1c0c:	39 07       	cpc	r19, r25
    1c0e:	08 f0       	brcs	.+2      	; 0x1c12 <_Z15checkFanVoltagev+0x28>
    1c10:	40 e0       	ldi	r20, 0x00	; 0
    1c12:	44 23       	and	r20, r20
    1c14:	21 f0       	breq	.+8      	; 0x1c1e <_Z15checkFanVoltagev+0x34>
    1c16:	83 e8       	ldi	r24, 0x83	; 131
    1c18:	95 e0       	ldi	r25, 0x05	; 5
    1c1a:	67 d8       	rcall	.-3890   	; 0xcea <_ZN6Errors7iterateEv>
    1c1c:	03 c0       	rjmp	.+6      	; 0x1c24 <_Z15checkFanVoltagev+0x3a>
	else err_undervolt.reset();
    1c1e:	83 e8       	ldi	r24, 0x83	; 131
    1c20:	95 e0       	ldi	r25, 0x05	; 5
    1c22:	89 d8       	rcall	.-3822   	; 0xd36 <_ZN6Errors5resetEv>
	
	if (aread(pin_Power_measure)/4 > maxFanVoltCached) err_overvolt.iterate();
    1c24:	83 ef       	ldi	r24, 0xF3	; 243
    1c26:	64 dd       	rcall	.-1336   	; 0x16f0 <_Z5areadh>
    1c28:	9c 01       	movw	r18, r24
    1c2a:	36 95       	lsr	r19
    1c2c:	27 95       	ror	r18
    1c2e:	36 95       	lsr	r19
    1c30:	27 95       	ror	r18
    1c32:	80 91 b7 05 	lds	r24, 0x05B7	; 0x8005b7 <maxFanVoltCached>
    1c36:	88 2f       	mov	r24, r24
    1c38:	90 e0       	ldi	r25, 0x00	; 0
    1c3a:	41 e0       	ldi	r20, 0x01	; 1
    1c3c:	82 17       	cp	r24, r18
    1c3e:	93 07       	cpc	r25, r19
    1c40:	08 f0       	brcs	.+2      	; 0x1c44 <_Z15checkFanVoltagev+0x5a>
    1c42:	40 e0       	ldi	r20, 0x00	; 0
    1c44:	44 23       	and	r20, r20
    1c46:	21 f0       	breq	.+8      	; 0x1c50 <_Z15checkFanVoltagev+0x66>
    1c48:	88 e8       	ldi	r24, 0x88	; 136
    1c4a:	95 e0       	ldi	r25, 0x05	; 5
    1c4c:	4e d8       	rcall	.-3940   	; 0xcea <_ZN6Errors7iterateEv>
    1c4e:	03 c0       	rjmp	.+6      	; 0x1c56 <_Z15checkFanVoltagev+0x6c>
	else err_overvolt.reset();
    1c50:	88 e8       	ldi	r24, 0x88	; 136
    1c52:	95 e0       	ldi	r25, 0x05	; 5
    1c54:	70 d8       	rcall	.-3872   	; 0xd36 <_ZN6Errors5resetEv>
}
    1c56:	df 91       	pop	r29
    1c58:	cf 91       	pop	r28
    1c5a:	08 95       	ret

00001c5c <_Z10check_heatv>:

void check_heat ()				//Проверка высокого
{
    1c5c:	cf 93       	push	r28
    1c5e:	df 93       	push	r29
    1c60:	cd b7       	in	r28, 0x3d	; 61
    1c62:	de b7       	in	r29, 0x3e	; 62
	heat_state = heat_state_interim;	//результат замера
    1c64:	80 91 6b 05 	lds	r24, 0x056B	; 0x80056b <heat_state_interim>
    1c68:	80 93 6a 05 	sts	0x056A, r24	; 0x80056a <heat_state>
	heat_state_interim = 0;				//для следующего замера
    1c6c:	10 92 6b 05 	sts	0x056B, r1	; 0x80056b <heat_state_interim>
	if (heat_request == 0 && heat_state) err_CRIT.iterate();
    1c70:	80 91 69 05 	lds	r24, 0x0569	; 0x800569 <heat_request>
    1c74:	88 23       	and	r24, r24
    1c76:	41 f4       	brne	.+16     	; 0x1c88 <_Z10check_heatv+0x2c>
    1c78:	80 91 6a 05 	lds	r24, 0x056A	; 0x80056a <heat_state>
    1c7c:	88 23       	and	r24, r24
    1c7e:	21 f0       	breq	.+8      	; 0x1c88 <_Z10check_heatv+0x2c>
    1c80:	87 e9       	ldi	r24, 0x97	; 151
    1c82:	95 e0       	ldi	r25, 0x05	; 5
    1c84:	32 d8       	rcall	.-3996   	; 0xcea <_ZN6Errors7iterateEv>
    1c86:	03 c0       	rjmp	.+6      	; 0x1c8e <_Z10check_heatv+0x32>
	else err_CRIT.reset();
    1c88:	87 e9       	ldi	r24, 0x97	; 151
    1c8a:	95 e0       	ldi	r25, 0x05	; 5
    1c8c:	54 d8       	rcall	.-3928   	; 0xd36 <_ZN6Errors5resetEv>
	//необходимость продувки. пора работает БН event_purge.flag будет равен нулю, через пять секунд после выключения станет единичкой
	if (heat_state) purge_finished.reset();
    1c8e:	80 91 6a 05 	lds	r24, 0x056A	; 0x80056a <heat_state>
    1c92:	88 23       	and	r24, r24
    1c94:	21 f0       	breq	.+8      	; 0x1c9e <_Z10check_heatv+0x42>
    1c96:	8c e9       	ldi	r24, 0x9C	; 156
    1c98:	95 e0       	ldi	r25, 0x05	; 5
    1c9a:	4d d8       	rcall	.-3942   	; 0xd36 <_ZN6Errors5resetEv>
    1c9c:	03 c0       	rjmp	.+6      	; 0x1ca4 <_Z10check_heatv+0x48>
	else purge_finished.iterate();
    1c9e:	8c e9       	ldi	r24, 0x9C	; 156
    1ca0:	95 e0       	ldi	r25, 0x05	; 5
    1ca2:	23 d8       	rcall	.-4026   	; 0xcea <_ZN6Errors7iterateEv>
}
    1ca4:	df 91       	pop	r29
    1ca6:	cf 91       	pop	r28
    1ca8:	08 95       	ret

00001caa <_Z9check_NTCv>:

void check_NTC ()				//Проверка датчика температуры
{
    1caa:	cf 93       	push	r28
    1cac:	df 93       	push	r29
    1cae:	cd b7       	in	r28, 0x3d	; 61
    1cb0:	de b7       	in	r29, 0x3e	; 62
	//перегрев
	if (getRoundedTempFromADC(NTC_type, aread(pin_NTC_LV)) > ntcOvhTempCached) err_NTC_ovh.iterate();
    1cb2:	82 ef       	ldi	r24, 0xF2	; 242
    1cb4:	1d dd       	rcall	.-1478   	; 0x16f0 <_Z5areadh>
    1cb6:	bc 01       	movw	r22, r24
    1cb8:	8c ec       	ldi	r24, 0xCC	; 204
    1cba:	90 e1       	ldi	r25, 0x10	; 16
    1cbc:	0e 94 c1 05 	call	0xb82	; 0xb82 <_Z21getRoundedTempFromADCij>
    1cc0:	28 2f       	mov	r18, r24
    1cc2:	88 0f       	add	r24, r24
    1cc4:	33 0b       	sbc	r19, r19
    1cc6:	80 91 ad 05 	lds	r24, 0x05AD	; 0x8005ad <ntcOvhTempCached>
    1cca:	88 2f       	mov	r24, r24
    1ccc:	90 e0       	ldi	r25, 0x00	; 0
    1cce:	41 e0       	ldi	r20, 0x01	; 1
    1cd0:	82 17       	cp	r24, r18
    1cd2:	93 07       	cpc	r25, r19
    1cd4:	0c f0       	brlt	.+2      	; 0x1cd8 <_Z9check_NTCv+0x2e>
    1cd6:	40 e0       	ldi	r20, 0x00	; 0
    1cd8:	44 23       	and	r20, r20
    1cda:	21 f0       	breq	.+8      	; 0x1ce4 <_Z9check_NTCv+0x3a>
    1cdc:	8f e6       	ldi	r24, 0x6F	; 111
    1cde:	95 e0       	ldi	r25, 0x05	; 5
    1ce0:	04 d8       	rcall	.-4088   	; 0xcea <_ZN6Errors7iterateEv>
    1ce2:	03 c0       	rjmp	.+6      	; 0x1cea <_Z9check_NTCv+0x40>
	else err_NTC_ovh.reset();
    1ce4:	8f e6       	ldi	r24, 0x6F	; 111
    1ce6:	95 e0       	ldi	r25, 0x05	; 5
    1ce8:	26 d8       	rcall	.-4020   	; 0xd36 <_ZN6Errors5resetEv>
	//замыкание
	if (getRoundedTempFromADC(NTC_type, aread(pin_NTC_LV)) == 127) err_NTC_lock.iterate();
    1cea:	82 ef       	ldi	r24, 0xF2	; 242
    1cec:	01 dd       	rcall	.-1534   	; 0x16f0 <_Z5areadh>
    1cee:	bc 01       	movw	r22, r24
    1cf0:	8c ec       	ldi	r24, 0xCC	; 204
    1cf2:	90 e1       	ldi	r25, 0x10	; 16
    1cf4:	0e 94 c1 05 	call	0xb82	; 0xb82 <_Z21getRoundedTempFromADCij>
    1cf8:	98 2f       	mov	r25, r24
    1cfa:	81 e0       	ldi	r24, 0x01	; 1
    1cfc:	9f 37       	cpi	r25, 0x7F	; 127
    1cfe:	09 f0       	breq	.+2      	; 0x1d02 <_Z9check_NTCv+0x58>
    1d00:	80 e0       	ldi	r24, 0x00	; 0
    1d02:	88 23       	and	r24, r24
    1d04:	29 f0       	breq	.+10     	; 0x1d10 <_Z9check_NTCv+0x66>
    1d06:	84 e7       	ldi	r24, 0x74	; 116
    1d08:	95 e0       	ldi	r25, 0x05	; 5
    1d0a:	0e 94 75 06 	call	0xcea	; 0xcea <_ZN6Errors7iterateEv>
    1d0e:	03 c0       	rjmp	.+6      	; 0x1d16 <_Z9check_NTCv+0x6c>
	else err_NTC_lock.reset();
    1d10:	84 e7       	ldi	r24, 0x74	; 116
    1d12:	95 e0       	ldi	r25, 0x05	; 5
    1d14:	10 d8       	rcall	.-4064   	; 0xd36 <_ZN6Errors5resetEv>
	//обрыв
	if (getRoundedTempFromADC(NTC_type, aread(pin_NTC_LV)) == -128) err_NTC_break.iterate();
    1d16:	82 ef       	ldi	r24, 0xF2	; 242
    1d18:	eb dc       	rcall	.-1578   	; 0x16f0 <_Z5areadh>
    1d1a:	bc 01       	movw	r22, r24
    1d1c:	8c ec       	ldi	r24, 0xCC	; 204
    1d1e:	90 e1       	ldi	r25, 0x10	; 16
    1d20:	0e 94 c1 05 	call	0xb82	; 0xb82 <_Z21getRoundedTempFromADCij>
    1d24:	98 2f       	mov	r25, r24
    1d26:	81 e0       	ldi	r24, 0x01	; 1
    1d28:	90 38       	cpi	r25, 0x80	; 128
    1d2a:	09 f0       	breq	.+2      	; 0x1d2e <_Z9check_NTCv+0x84>
    1d2c:	80 e0       	ldi	r24, 0x00	; 0
    1d2e:	88 23       	and	r24, r24
    1d30:	29 f0       	breq	.+10     	; 0x1d3c <_Z9check_NTCv+0x92>
    1d32:	89 e7       	ldi	r24, 0x79	; 121
    1d34:	95 e0       	ldi	r25, 0x05	; 5
    1d36:	0e 94 75 06 	call	0xcea	; 0xcea <_ZN6Errors7iterateEv>
    1d3a:	04 c0       	rjmp	.+8      	; 0x1d44 <_Z9check_NTCv+0x9a>
	else err_NTC_break.reset();
    1d3c:	89 e7       	ldi	r24, 0x79	; 121
    1d3e:	95 e0       	ldi	r25, 0x05	; 5
    1d40:	0e 94 9b 06 	call	0xd36	; 0xd36 <_ZN6Errors5resetEv>
}
    1d44:	df 91       	pop	r29
    1d46:	cf 91       	pop	r28
    1d48:	08 95       	ret

00001d4a <_Z9check_CANv>:


void check_CAN ()				//Проверка отвала CAN
{
    1d4a:	cf 93       	push	r28
    1d4c:	df 93       	push	r29
    1d4e:	cd b7       	in	r28, 0x3d	; 61
    1d50:	de b7       	in	r29, 0x3e	; 62
	//перегрев
	err_CAN_disconnect.iterate();
    1d52:	8d e8       	ldi	r24, 0x8D	; 141
    1d54:	95 e0       	ldi	r25, 0x05	; 5
    1d56:	0e 94 75 06 	call	0xcea	; 0xcea <_ZN6Errors7iterateEv>
	//err_NTC_ovh.reset(); обнуление происходит в CAN_ISR
}
    1d5a:	df 91       	pop	r29
    1d5c:	cf 91       	pop	r28
    1d5e:	08 95       	ret

00001d60 <_Z10check_PKBNv>:

void check_PKBN ()				//Проверка подключенного ПКБН
{
    1d60:	cf 93       	push	r28
    1d62:	df 93       	push	r29
    1d64:	cd b7       	in	r28, 0x3d	; 61
    1d66:	de b7       	in	r29, 0x3e	; 62
	if (aread(pin_HEAT_CHECK_ADC) > 820) err_PKBN_break.iterate();
    1d68:	81 ef       	ldi	r24, 0xF1	; 241
    1d6a:	c2 dc       	rcall	.-1660   	; 0x16f0 <_Z5areadh>
    1d6c:	21 e0       	ldi	r18, 0x01	; 1
    1d6e:	85 33       	cpi	r24, 0x35	; 53
    1d70:	93 40       	sbci	r25, 0x03	; 3
    1d72:	08 f4       	brcc	.+2      	; 0x1d76 <_Z10check_PKBNv+0x16>
    1d74:	20 e0       	ldi	r18, 0x00	; 0
    1d76:	22 23       	and	r18, r18
    1d78:	29 f0       	breq	.+10     	; 0x1d84 <_Z10check_PKBNv+0x24>
    1d7a:	82 e9       	ldi	r24, 0x92	; 146
    1d7c:	95 e0       	ldi	r25, 0x05	; 5
    1d7e:	0e 94 75 06 	call	0xcea	; 0xcea <_ZN6Errors7iterateEv>
    1d82:	04 c0       	rjmp	.+8      	; 0x1d8c <_Z10check_PKBNv+0x2c>
	else err_PKBN_break.reset();
    1d84:	82 e9       	ldi	r24, 0x92	; 146
    1d86:	95 e0       	ldi	r25, 0x05	; 5
    1d88:	0e 94 9b 06 	call	0xd36	; 0xd36 <_ZN6Errors5resetEv>
}
    1d8c:	df 91       	pop	r29
    1d8e:	cf 91       	pop	r28
    1d90:	08 95       	ret

00001d92 <_Z20change_current_statev>:

void change_current_state ()	//смена текущего режима
{
    1d92:	cf 93       	push	r28
    1d94:	df 93       	push	r29
    1d96:	cd b7       	in	r28, 0x3d	; 61
    1d98:	de b7       	in	r29, 0x3e	; 62
	if (manualRequest) current_state = MAN;			//приоритет: сначала у ручного
    1d9a:	80 91 6e 05 	lds	r24, 0x056E	; 0x80056e <manualRequest>
    1d9e:	88 23       	and	r24, r24
    1da0:	21 f0       	breq	.+8      	; 0x1daa <_Z20change_current_statev+0x18>
    1da2:	83 e0       	ldi	r24, 0x03	; 3
    1da4:	80 93 6d 05 	sts	0x056D, r24	; 0x80056d <current_state>
    1da8:	30 c0       	rjmp	.+96     	; 0x1e0a <_Z20change_current_statev+0x78>
	else if (err_CRIT.flag) current_state = CRIT;	//потом у аварии
    1daa:	80 91 99 05 	lds	r24, 0x0599	; 0x800599 <err_CRIT+0x2>
    1dae:	88 23       	and	r24, r24
    1db0:	21 f0       	breq	.+8      	; 0x1dba <_Z20change_current_statev+0x28>
    1db2:	85 e0       	ldi	r24, 0x05	; 5
    1db4:	80 93 6d 05 	sts	0x056D, r24	; 0x80056d <current_state>
    1db8:	28 c0       	rjmp	.+80     	; 0x1e0a <_Z20change_current_statev+0x78>
	else if (
    1dba:	80 91 80 05 	lds	r24, 0x0580	; 0x800580 <err_FAN_dismatch+0x2>
    1dbe:	88 23       	and	r24, r24
    1dc0:	e1 f4       	brne	.+56     	; 0x1dfa <_Z20change_current_statev+0x68>
			err_FAN_dismatch.flag	|| err_overvolt.flag	|| err_undervolt.flag	||	//ошибки движка
    1dc2:	80 91 8a 05 	lds	r24, 0x058A	; 0x80058a <err_overvolt+0x2>
    1dc6:	88 23       	and	r24, r24
    1dc8:	c1 f4       	brne	.+48     	; 0x1dfa <_Z20change_current_statev+0x68>
    1dca:	80 91 85 05 	lds	r24, 0x0585	; 0x800585 <err_undervolt+0x2>
    1dce:	88 23       	and	r24, r24
    1dd0:	a1 f4       	brne	.+40     	; 0x1dfa <_Z20change_current_statev+0x68>
    1dd2:	80 91 7b 05 	lds	r24, 0x057B	; 0x80057b <err_NTC_break+0x2>
    1dd6:	88 23       	and	r24, r24
    1dd8:	81 f4       	brne	.+32     	; 0x1dfa <_Z20change_current_statev+0x68>
			err_NTC_break.flag		|| err_NTC_lock.flag	|| err_NTC_ovh.flag		||	//ошибки NTC
    1dda:	80 91 76 05 	lds	r24, 0x0576	; 0x800576 <err_NTC_lock+0x2>
    1dde:	88 23       	and	r24, r24
    1de0:	61 f4       	brne	.+24     	; 0x1dfa <_Z20change_current_statev+0x68>
    1de2:	80 91 71 05 	lds	r24, 0x0571	; 0x800571 <err_NTC_ovh+0x2>
    1de6:	88 23       	and	r24, r24
    1de8:	41 f4       	brne	.+16     	; 0x1dfa <_Z20change_current_statev+0x68>
    1dea:	80 91 8f 05 	lds	r24, 0x058F	; 0x80058f <err_CAN_disconnect+0x2>
    1dee:	88 23       	and	r24, r24
    1df0:	21 f4       	brne	.+8      	; 0x1dfa <_Z20change_current_statev+0x68>
			err_CAN_disconnect.flag	|| err_PKBN_break.flag								//ошибки CAN и ПКБН
    1df2:	80 91 94 05 	lds	r24, 0x0594	; 0x800594 <err_PKBN_break+0x2>
    1df6:	88 23       	and	r24, r24
    1df8:	21 f0       	breq	.+8      	; 0x1e02 <_Z20change_current_statev+0x70>
			) current_state = ERROR;	//потом ошибки
    1dfa:	84 e0       	ldi	r24, 0x04	; 4
    1dfc:	80 93 6d 05 	sts	0x056D, r24	; 0x80056d <current_state>
    1e00:	04 c0       	rjmp	.+8      	; 0x1e0a <_Z20change_current_statev+0x78>
	
	else current_state = target_state;	//и только если ничего из вышеперечисленного, то меняем состояние на требуемое
    1e02:	80 91 6c 05 	lds	r24, 0x056C	; 0x80056c <target_state>
    1e06:	80 93 6d 05 	sts	0x056D, r24	; 0x80056d <current_state>
}
    1e0a:	df 91       	pop	r29
    1e0c:	cf 91       	pop	r28
    1e0e:	08 95       	ret

00001e10 <__vector_28>:

//прерывание по таймеру
ISR(TIMER3_COMPA_vect)		//Прерывание по таймеру
{	
    1e10:	1f 92       	push	r1
    1e12:	0f 92       	push	r0
    1e14:	00 90 5f 00 	lds	r0, 0x005F	; 0x80005f <__TEXT_REGION_LENGTH__+0x7e005f>
    1e18:	0f 92       	push	r0
    1e1a:	11 24       	eor	r1, r1
    1e1c:	00 90 5b 00 	lds	r0, 0x005B	; 0x80005b <__TEXT_REGION_LENGTH__+0x7e005b>
    1e20:	0f 92       	push	r0
    1e22:	2f 93       	push	r18
    1e24:	3f 93       	push	r19
    1e26:	4f 93       	push	r20
    1e28:	5f 93       	push	r21
    1e2a:	6f 93       	push	r22
    1e2c:	7f 93       	push	r23
    1e2e:	8f 93       	push	r24
    1e30:	9f 93       	push	r25
    1e32:	af 93       	push	r26
    1e34:	bf 93       	push	r27
    1e36:	ef 93       	push	r30
    1e38:	ff 93       	push	r31
    1e3a:	cf 93       	push	r28
    1e3c:	df 93       	push	r29
    1e3e:	cd b7       	in	r28, 0x3d	; 61
    1e40:	de b7       	in	r29, 0x3e	; 62
	wdt_reset();
    1e42:	a8 95       	wdr
	checkFanVoltage();					//проверяем напругу
    1e44:	d2 de       	rcall	.-604    	; 0x1bea <_Z15checkFanVoltagev>
	check_NTC();						//датчик
    1e46:	31 df       	rcall	.-414    	; 0x1caa <_Z9check_NTCv>
	check_heat();						//БН
    1e48:	09 df       	rcall	.-494    	; 0x1c5c <_Z10check_heatv>
	check_fb();							//обороты
    1e4a:	3a dd       	rcall	.-1420   	; 0x18c0 <_Z8check_fbv>
	check_CAN();						//шина данных в норме
    1e4c:	7e df       	rcall	.-260    	; 0x1d4a <_Z9check_CANv>
	check_PKBN();						//не отвалилась ли ПКБН
    1e4e:	88 df       	rcall	.-240    	; 0x1d60 <_Z10check_PKBNv>
	change_current_state();				//выбираем режим
    1e50:	a0 df       	rcall	.-192    	; 0x1d92 <_Z20change_current_statev>
	//АВТОМАТИКА
	switch (current_state)
    1e52:	80 91 6d 05 	lds	r24, 0x056D	; 0x80056d <current_state>
    1e56:	88 2f       	mov	r24, r24
    1e58:	90 e0       	ldi	r25, 0x00	; 0
    1e5a:	82 30       	cpi	r24, 0x02	; 2
    1e5c:	91 05       	cpc	r25, r1
    1e5e:	b9 f1       	breq	.+110    	; 0x1ece <__vector_28+0xbe>
    1e60:	83 30       	cpi	r24, 0x03	; 3
    1e62:	91 05       	cpc	r25, r1
    1e64:	2c f4       	brge	.+10     	; 0x1e70 <__vector_28+0x60>
    1e66:	00 97       	sbiw	r24, 0x00	; 0
    1e68:	79 f0       	breq	.+30     	; 0x1e88 <__vector_28+0x78>
    1e6a:	01 97       	sbiw	r24, 0x01	; 1
    1e6c:	19 f1       	breq	.+70     	; 0x1eb4 <__vector_28+0xa4>
    1e6e:	79 c0       	rjmp	.+242    	; 0x1f62 <__vector_28+0x152>
    1e70:	84 30       	cpi	r24, 0x04	; 4
    1e72:	91 05       	cpc	r25, r1
    1e74:	09 f4       	brne	.+2      	; 0x1e78 <__vector_28+0x68>
    1e76:	38 c0       	rjmp	.+112    	; 0x1ee8 <__vector_28+0xd8>
    1e78:	84 30       	cpi	r24, 0x04	; 4
    1e7a:	91 05       	cpc	r25, r1
    1e7c:	0c f4       	brge	.+2      	; 0x1e80 <__vector_28+0x70>
    1e7e:	70 c0       	rjmp	.+224    	; 0x1f60 <__vector_28+0x150>
    1e80:	05 97       	sbiw	r24, 0x05	; 5
    1e82:	09 f4       	brne	.+2      	; 0x1e86 <__vector_28+0x76>
    1e84:	62 c0       	rjmp	.+196    	; 0x1f4a <__vector_28+0x13a>
    1e86:	6d c0       	rjmp	.+218    	; 0x1f62 <__vector_28+0x152>
	{
		case STB:						//дежурка
			TZV_OK = 1;
    1e88:	81 e0       	ldi	r24, 0x01	; 1
    1e8a:	80 93 4e 05 	sts	0x054E, r24	; 0x80054e <TZV_OK>
			heat_request = 0;
    1e8e:	10 92 69 05 	sts	0x0569, r1	; 0x800569 <heat_request>
			if (purge_finished.flag)	//если продувка завершена, молчим
    1e92:	80 91 9e 05 	lds	r24, 0x059E	; 0x80059e <purge_finished+0x2>
    1e96:	88 23       	and	r24, r24
    1e98:	31 f0       	breq	.+12     	; 0x1ea6 <__vector_28+0x96>
			{
				setPin(pin_FAN_POWER, 0);
    1e9a:	60 e0       	ldi	r22, 0x00	; 0
    1e9c:	80 ed       	ldi	r24, 0xD0	; 208
    1e9e:	db d9       	rcall	.-3146   	; 0x1256 <_Z6setPinhb>
				setDrivePower(0);
    1ea0:	80 e0       	ldi	r24, 0x00	; 0
    1ea2:	65 dc       	rcall	.-1846   	; 0x176e <_Z13setDrivePowerh>
			else						//если продувка не завершена - додуваем
			{
				setPin(pin_FAN_POWER, 1);
				setDrivePower(ctrlHalfCached);
			}			
			break;
    1ea4:	5e c0       	rjmp	.+188    	; 0x1f62 <__vector_28+0x152>
				setPin(pin_FAN_POWER, 0);
				setDrivePower(0);
			}
			else						//если продувка не завершена - додуваем
			{
				setPin(pin_FAN_POWER, 1);
    1ea6:	61 e0       	ldi	r22, 0x01	; 1
    1ea8:	80 ed       	ldi	r24, 0xD0	; 208
    1eaa:	d5 d9       	rcall	.-3158   	; 0x1256 <_Z6setPinhb>
				setDrivePower(ctrlHalfCached);
    1eac:	80 91 b4 05 	lds	r24, 0x05B4	; 0x8005b4 <ctrlHalfCached>
    1eb0:	5e dc       	rcall	.-1860   	; 0x176e <_Z13setDrivePowerh>
			}			
			break;
    1eb2:	57 c0       	rjmp	.+174    	; 0x1f62 <__vector_28+0x152>
		case HALF:						//средняя мощность
			TZV_OK = 1;
    1eb4:	81 e0       	ldi	r24, 0x01	; 1
    1eb6:	80 93 4e 05 	sts	0x054E, r24	; 0x80054e <TZV_OK>
			setPin(pin_FAN_POWER, 1);
    1eba:	61 e0       	ldi	r22, 0x01	; 1
    1ebc:	80 ed       	ldi	r24, 0xD0	; 208
    1ebe:	cb d9       	rcall	.-3178   	; 0x1256 <_Z6setPinhb>
			setDrivePower(ctrlHalfCached);
    1ec0:	80 91 b4 05 	lds	r24, 0x05B4	; 0x8005b4 <ctrlHalfCached>
    1ec4:	54 dc       	rcall	.-1880   	; 0x176e <_Z13setDrivePowerh>
			heat_request = 1;
    1ec6:	81 e0       	ldi	r24, 0x01	; 1
    1ec8:	80 93 69 05 	sts	0x0569, r24	; 0x800569 <heat_request>
			break;
    1ecc:	4a c0       	rjmp	.+148    	; 0x1f62 <__vector_28+0x152>
		case FULL:						//полная мощность
			TZV_OK = 1;
    1ece:	81 e0       	ldi	r24, 0x01	; 1
    1ed0:	80 93 4e 05 	sts	0x054E, r24	; 0x80054e <TZV_OK>
			setPin(pin_FAN_POWER, 1);
    1ed4:	61 e0       	ldi	r22, 0x01	; 1
    1ed6:	80 ed       	ldi	r24, 0xD0	; 208
    1ed8:	be d9       	rcall	.-3204   	; 0x1256 <_Z6setPinhb>
			setDrivePower(ctrlFullCached);
    1eda:	80 91 b5 05 	lds	r24, 0x05B5	; 0x8005b5 <ctrlFullCached>
    1ede:	47 dc       	rcall	.-1906   	; 0x176e <_Z13setDrivePowerh>
			heat_request = 2;
    1ee0:	82 e0       	ldi	r24, 0x02	; 2
    1ee2:	80 93 69 05 	sts	0x0569, r24	; 0x800569 <heat_request>
			break;
    1ee6:	3d c0       	rjmp	.+122    	; 0x1f62 <__vector_28+0x152>
		case MAN:						//ручной
			//ручной режим, автоматика отдыхает, работаем по командам из CAN
			break;
		case ERROR:						//ошибка
			TZV_OK = 0;
    1ee8:	10 92 4e 05 	sts	0x054E, r1	; 0x80054e <TZV_OK>
			if (err_FAN_dismatch.flag || err_overvolt.flag || err_undervolt.flag)	//если проблемы с движками - глушим
    1eec:	80 91 80 05 	lds	r24, 0x0580	; 0x800580 <err_FAN_dismatch+0x2>
    1ef0:	88 23       	and	r24, r24
    1ef2:	41 f4       	brne	.+16     	; 0x1f04 <__vector_28+0xf4>
    1ef4:	80 91 8a 05 	lds	r24, 0x058A	; 0x80058a <err_overvolt+0x2>
    1ef8:	88 23       	and	r24, r24
    1efa:	21 f4       	brne	.+8      	; 0x1f04 <__vector_28+0xf4>
    1efc:	80 91 85 05 	lds	r24, 0x0585	; 0x800585 <err_undervolt+0x2>
    1f00:	88 23       	and	r24, r24
    1f02:	31 f0       	breq	.+12     	; 0x1f10 <__vector_28+0x100>
			{
				setPin(pin_FAN_POWER, 0);
    1f04:	60 e0       	ldi	r22, 0x00	; 0
    1f06:	80 ed       	ldi	r24, 0xD0	; 208
    1f08:	a6 d9       	rcall	.-3252   	; 0x1256 <_Z6setPinhb>
				setDrivePower(0);
    1f0a:	80 e0       	ldi	r24, 0x00	; 0
    1f0c:	30 dc       	rcall	.-1952   	; 0x176e <_Z13setDrivePowerh>
    1f0e:	1a c0       	rjmp	.+52     	; 0x1f44 <__vector_28+0x134>
			}
			else if (err_NTC_break.flag || err_NTC_lock.flag || err_NTC_ovh.flag || err_CAN_disconnect.flag || err_PKBN_break.flag)	//если с движками всё ок, но проблемы с NTC или CAN - крутимся
    1f10:	80 91 7b 05 	lds	r24, 0x057B	; 0x80057b <err_NTC_break+0x2>
    1f14:	88 23       	and	r24, r24
    1f16:	81 f4       	brne	.+32     	; 0x1f38 <__vector_28+0x128>
    1f18:	80 91 76 05 	lds	r24, 0x0576	; 0x800576 <err_NTC_lock+0x2>
    1f1c:	88 23       	and	r24, r24
    1f1e:	61 f4       	brne	.+24     	; 0x1f38 <__vector_28+0x128>
    1f20:	80 91 71 05 	lds	r24, 0x0571	; 0x800571 <err_NTC_ovh+0x2>
    1f24:	88 23       	and	r24, r24
    1f26:	41 f4       	brne	.+16     	; 0x1f38 <__vector_28+0x128>
    1f28:	80 91 8f 05 	lds	r24, 0x058F	; 0x80058f <err_CAN_disconnect+0x2>
    1f2c:	88 23       	and	r24, r24
    1f2e:	21 f4       	brne	.+8      	; 0x1f38 <__vector_28+0x128>
    1f30:	80 91 94 05 	lds	r24, 0x0594	; 0x800594 <err_PKBN_break+0x2>
    1f34:	88 23       	and	r24, r24
    1f36:	31 f0       	breq	.+12     	; 0x1f44 <__vector_28+0x134>
			{
				setPin(pin_FAN_POWER, 1);
    1f38:	61 e0       	ldi	r22, 0x01	; 1
    1f3a:	80 ed       	ldi	r24, 0xD0	; 208
    1f3c:	8c d9       	rcall	.-3304   	; 0x1256 <_Z6setPinhb>
				setDrivePower(ctrlHalfCached);
    1f3e:	80 91 b4 05 	lds	r24, 0x05B4	; 0x8005b4 <ctrlHalfCached>
    1f42:	15 dc       	rcall	.-2006   	; 0x176e <_Z13setDrivePowerh>
			}
			heat_request = 0;
    1f44:	10 92 69 05 	sts	0x0569, r1	; 0x800569 <heat_request>
			break;
    1f48:	0c c0       	rjmp	.+24     	; 0x1f62 <__vector_28+0x152>
		case CRIT:						//критическая авария
			TZV_OK = 0;
    1f4a:	10 92 4e 05 	sts	0x054E, r1	; 0x80054e <TZV_OK>
			setPin(pin_FAN_POWER, 1);
    1f4e:	61 e0       	ldi	r22, 0x01	; 1
    1f50:	80 ed       	ldi	r24, 0xD0	; 208
    1f52:	81 d9       	rcall	.-3326   	; 0x1256 <_Z6setPinhb>
			setDrivePower(ctrlFullCached);
    1f54:	80 91 b5 05 	lds	r24, 0x05B5	; 0x8005b5 <ctrlFullCached>
    1f58:	0a dc       	rcall	.-2028   	; 0x176e <_Z13setDrivePowerh>
			heat_request = 0;
    1f5a:	10 92 69 05 	sts	0x0569, r1	; 0x800569 <heat_request>
			break;	
    1f5e:	01 c0       	rjmp	.+2      	; 0x1f62 <__vector_28+0x152>
			setDrivePower(ctrlFullCached);
			heat_request = 2;
			break;
		case MAN:						//ручной
			//ручной режим, автоматика отдыхает, работаем по командам из CAN
			break;
    1f60:	00 00       	nop
			setDrivePower(ctrlFullCached);
			heat_request = 0;
			break;	
	}
	
	sendStatCounter++;
    1f62:	80 91 ab 05 	lds	r24, 0x05AB	; 0x8005ab <sendStatCounter>
    1f66:	8f 5f       	subi	r24, 0xFF	; 255
    1f68:	80 93 ab 05 	sts	0x05AB, r24	; 0x8005ab <sendStatCounter>
	if (sendStatCounter >= DEFAULT_SEND_STAT_DELAY)
    1f6c:	80 91 ab 05 	lds	r24, 0x05AB	; 0x8005ab <sendStatCounter>
    1f70:	8a 30       	cpi	r24, 0x0A	; 10
    1f72:	28 f0       	brcs	.+10     	; 0x1f7e <__vector_28+0x16e>
	{
		flagTimeToTransmit = 1;
    1f74:	81 e0       	ldi	r24, 0x01	; 1
    1f76:	80 93 ac 05 	sts	0x05AC, r24	; 0x8005ac <flagTimeToTransmit>
		sendStatCounter = 0;
    1f7a:	10 92 ab 05 	sts	0x05AB, r1	; 0x8005ab <sendStatCounter>
	}
}
    1f7e:	df 91       	pop	r29
    1f80:	cf 91       	pop	r28
    1f82:	ff 91       	pop	r31
    1f84:	ef 91       	pop	r30
    1f86:	bf 91       	pop	r27
    1f88:	af 91       	pop	r26
    1f8a:	9f 91       	pop	r25
    1f8c:	8f 91       	pop	r24
    1f8e:	7f 91       	pop	r23
    1f90:	6f 91       	pop	r22
    1f92:	5f 91       	pop	r21
    1f94:	4f 91       	pop	r20
    1f96:	3f 91       	pop	r19
    1f98:	2f 91       	pop	r18
    1f9a:	0f 90       	pop	r0
    1f9c:	00 92 5b 00 	sts	0x005B, r0	; 0x80005b <__TEXT_REGION_LENGTH__+0x7e005b>
    1fa0:	0f 90       	pop	r0
    1fa2:	00 92 5f 00 	sts	0x005F, r0	; 0x80005f <__TEXT_REGION_LENGTH__+0x7e005f>
    1fa6:	0f 90       	pop	r0
    1fa8:	1f 90       	pop	r1
    1faa:	18 95       	reti

00001fac <__vector_18>:

//прерывание приема сообщения CAN
ISR (CANIT_vect)
{
    1fac:	1f 92       	push	r1
    1fae:	0f 92       	push	r0
    1fb0:	00 90 5f 00 	lds	r0, 0x005F	; 0x80005f <__TEXT_REGION_LENGTH__+0x7e005f>
    1fb4:	0f 92       	push	r0
    1fb6:	11 24       	eor	r1, r1
    1fb8:	00 90 5b 00 	lds	r0, 0x005B	; 0x80005b <__TEXT_REGION_LENGTH__+0x7e005b>
    1fbc:	0f 92       	push	r0
    1fbe:	2f 93       	push	r18
    1fc0:	3f 93       	push	r19
    1fc2:	4f 93       	push	r20
    1fc4:	5f 93       	push	r21
    1fc6:	6f 93       	push	r22
    1fc8:	7f 93       	push	r23
    1fca:	8f 93       	push	r24
    1fcc:	9f 93       	push	r25
    1fce:	af 93       	push	r26
    1fd0:	bf 93       	push	r27
    1fd2:	ef 93       	push	r30
    1fd4:	ff 93       	push	r31
    1fd6:	cf 93       	push	r28
    1fd8:	df 93       	push	r29
    1fda:	cd b7       	in	r28, 0x3d	; 61
    1fdc:	de b7       	in	r29, 0x3e	; 62
    1fde:	2f 97       	sbiw	r28, 0x0f	; 15
    1fe0:	de bf       	out	0x3e, r29	; 62
    1fe2:	cd bf       	out	0x3d, r28	; 61
	resetInterrupts();
    1fe4:	0e 94 3e 03 	call	0x67c	; 0x67c <_Z15resetInterruptsv>
	err_CAN_disconnect.reset();		//попали сюда - значит отвала CAN нету
    1fe8:	8d e8       	ldi	r24, 0x8D	; 141
    1fea:	95 e0       	ldi	r25, 0x05	; 5
    1fec:	0e 94 9b 06 	call	0xd36	; 0xd36 <_ZN6Errors5resetEv>
	//обработка сообщений пульта
	selectMOb(NUM_PULT_PACK);
    1ff0:	80 e0       	ldi	r24, 0x00	; 0
    1ff2:	0e 94 61 01 	call	0x2c2	; 0x2c2 <_Z9selectMObh>
	if (readMessageWithAllRoutine())
    1ff6:	0e 94 65 07 	call	0xeca	; 0xeca <_Z25readMessageWithAllRoutinev>
    1ffa:	98 2f       	mov	r25, r24
    1ffc:	81 e0       	ldi	r24, 0x01	; 1
    1ffe:	99 23       	and	r25, r25
    2000:	09 f4       	brne	.+2      	; 0x2004 <__vector_18+0x58>
    2002:	80 e0       	ldi	r24, 0x00	; 0
    2004:	88 23       	and	r24, r24
    2006:	09 f4       	brne	.+2      	; 0x200a <__vector_18+0x5e>
    2008:	42 c0       	rjmp	.+132    	; 0x208e <__vector_18+0xe2>
	{
		if (lastCANmessage[5] == 1) target_state = STB;		//выключить завесы
    200a:	80 91 a7 05 	lds	r24, 0x05A7	; 0x8005a7 <lastCANmessage+0x5>
    200e:	81 30       	cpi	r24, 0x01	; 1
    2010:	11 f4       	brne	.+4      	; 0x2016 <__vector_18+0x6a>
    2012:	10 92 6c 05 	sts	0x056C, r1	; 0x80056c <target_state>
		if (lastCANmessage[5] == 2)							//включить завесы
    2016:	80 91 a7 05 	lds	r24, 0x05A7	; 0x8005a7 <lastCANmessage+0x5>
    201a:	82 30       	cpi	r24, 0x02	; 2
    201c:	c1 f5       	brne	.+112    	; 0x208e <__vector_18+0xe2>
		{
			if ((index <= 7) && ((lastCANmessage[6] >> index) & 1)) target_state = FULL;	//для первых восьми завес включить на полную
    201e:	80 91 bc 05 	lds	r24, 0x05BC	; 0x8005bc <index>
    2022:	88 30       	cpi	r24, 0x08	; 8
    2024:	a8 f4       	brcc	.+42     	; 0x2050 <__vector_18+0xa4>
    2026:	80 91 a8 05 	lds	r24, 0x05A8	; 0x8005a8 <lastCANmessage+0x6>
    202a:	88 2f       	mov	r24, r24
    202c:	90 e0       	ldi	r25, 0x00	; 0
    202e:	20 91 bc 05 	lds	r18, 0x05BC	; 0x8005bc <index>
    2032:	22 2f       	mov	r18, r18
    2034:	30 e0       	ldi	r19, 0x00	; 0
    2036:	02 c0       	rjmp	.+4      	; 0x203c <__vector_18+0x90>
    2038:	95 95       	asr	r25
    203a:	87 95       	ror	r24
    203c:	2a 95       	dec	r18
    203e:	e2 f7       	brpl	.-8      	; 0x2038 <__vector_18+0x8c>
    2040:	81 70       	andi	r24, 0x01	; 1
    2042:	99 27       	eor	r25, r25
    2044:	89 2b       	or	r24, r25
    2046:	21 f0       	breq	.+8      	; 0x2050 <__vector_18+0xa4>
    2048:	82 e0       	ldi	r24, 0x02	; 2
    204a:	80 93 6c 05 	sts	0x056C, r24	; 0x80056c <target_state>
    204e:	1f c0       	rjmp	.+62     	; 0x208e <__vector_18+0xe2>
			else if ((index > 7) && ((lastCANmessage[7] >> (index-8)) & 1)) target_state = FULL;	//для вторых восьми завес
    2050:	80 91 bc 05 	lds	r24, 0x05BC	; 0x8005bc <index>
    2054:	88 30       	cpi	r24, 0x08	; 8
    2056:	b8 f0       	brcs	.+46     	; 0x2086 <__vector_18+0xda>
    2058:	80 91 a9 05 	lds	r24, 0x05A9	; 0x8005a9 <lastCANmessage+0x7>
    205c:	88 2f       	mov	r24, r24
    205e:	90 e0       	ldi	r25, 0x00	; 0
    2060:	20 91 bc 05 	lds	r18, 0x05BC	; 0x8005bc <index>
    2064:	22 2f       	mov	r18, r18
    2066:	30 e0       	ldi	r19, 0x00	; 0
    2068:	28 50       	subi	r18, 0x08	; 8
    206a:	31 09       	sbc	r19, r1
    206c:	02 c0       	rjmp	.+4      	; 0x2072 <__vector_18+0xc6>
    206e:	95 95       	asr	r25
    2070:	87 95       	ror	r24
    2072:	2a 95       	dec	r18
    2074:	e2 f7       	brpl	.-8      	; 0x206e <__vector_18+0xc2>
    2076:	81 70       	andi	r24, 0x01	; 1
    2078:	99 27       	eor	r25, r25
    207a:	89 2b       	or	r24, r25
    207c:	21 f0       	breq	.+8      	; 0x2086 <__vector_18+0xda>
    207e:	82 e0       	ldi	r24, 0x02	; 2
    2080:	80 93 6c 05 	sts	0x056C, r24	; 0x80056c <target_state>
    2084:	04 c0       	rjmp	.+8      	; 0x208e <__vector_18+0xe2>
			else target_state = HALF;									//дверь закрыта
    2086:	81 e0       	ldi	r24, 0x01	; 1
    2088:	80 93 6c 05 	sts	0x056C, r24	; 0x80056c <target_state>
    208c:	00 c0       	rjmp	.+0      	; 0x208e <__vector_18+0xe2>
		}
	}
	
	//Настройка
	selectMOb(NUM_CONFIG_PACK);
    208e:	81 e0       	ldi	r24, 0x01	; 1
    2090:	0e 94 61 01 	call	0x2c2	; 0x2c2 <_Z9selectMObh>
	if (readMessageWithAllRoutine())
    2094:	0e 94 65 07 	call	0xeca	; 0xeca <_Z25readMessageWithAllRoutinev>
    2098:	98 2f       	mov	r25, r24
    209a:	81 e0       	ldi	r24, 0x01	; 1
    209c:	99 23       	and	r25, r25
    209e:	09 f4       	brne	.+2      	; 0x20a2 <__vector_18+0xf6>
    20a0:	80 e0       	ldi	r24, 0x00	; 0
    20a2:	88 23       	and	r24, r24
    20a4:	09 f4       	brne	.+2      	; 0x20a8 <__vector_18+0xfc>
    20a6:	e3 c1       	rjmp	.+966    	; 0x246e <__vector_18+0x4c2>
	{
		uint8_t answer[8] = {0};
    20a8:	28 e0       	ldi	r18, 0x08	; 8
    20aa:	ce 01       	movw	r24, r28
    20ac:	04 96       	adiw	r24, 0x04	; 4
    20ae:	fc 01       	movw	r30, r24
    20b0:	32 2f       	mov	r19, r18
    20b2:	11 92       	st	Z+, r1
    20b4:	3a 95       	dec	r19
    20b6:	e9 f7       	brne	.-6      	; 0x20b2 <__vector_18+0x106>
		//Команды
		if (lastCANmessage[1] == loaderNodeNumberCached || lastCANmessage[1] == 0xFF) //сообщение назначается именно этой завесе
    20b8:	90 91 a3 05 	lds	r25, 0x05A3	; 0x8005a3 <lastCANmessage+0x1>
    20bc:	80 91 bb 05 	lds	r24, 0x05BB	; 0x8005bb <loaderNodeNumberCached>
    20c0:	98 17       	cp	r25, r24
    20c2:	29 f0       	breq	.+10     	; 0x20ce <__vector_18+0x122>
    20c4:	80 91 a3 05 	lds	r24, 0x05A3	; 0x8005a3 <lastCANmessage+0x1>
    20c8:	8f 3f       	cpi	r24, 0xFF	; 255
    20ca:	09 f0       	breq	.+2      	; 0x20ce <__vector_18+0x122>
    20cc:	ca c1       	rjmp	.+916    	; 0x2462 <__vector_18+0x4b6>
		switch(lastCANmessage[0])
    20ce:	80 91 a2 05 	lds	r24, 0x05A2	; 0x8005a2 <lastCANmessage>
    20d2:	88 2f       	mov	r24, r24
    20d4:	90 e0       	ldi	r25, 0x00	; 0
    20d6:	89 35       	cpi	r24, 0x59	; 89
    20d8:	91 05       	cpc	r25, r1
    20da:	09 f4       	brne	.+2      	; 0x20de <__vector_18+0x132>
    20dc:	5b c0       	rjmp	.+182    	; 0x2194 <__vector_18+0x1e8>
    20de:	8a 35       	cpi	r24, 0x5A	; 90
    20e0:	91 05       	cpc	r25, r1
    20e2:	4c f4       	brge	.+18     	; 0x20f6 <__vector_18+0x14a>
    20e4:	87 35       	cpi	r24, 0x57	; 87
    20e6:	91 05       	cpc	r25, r1
    20e8:	09 f4       	brne	.+2      	; 0x20ec <__vector_18+0x140>
    20ea:	42 c1       	rjmp	.+644    	; 0x2370 <__vector_18+0x3c4>
    20ec:	88 35       	cpi	r24, 0x58	; 88
    20ee:	91 05       	cpc	r25, r1
    20f0:	09 f4       	brne	.+2      	; 0x20f4 <__vector_18+0x148>
    20f2:	ae c0       	rjmp	.+348    	; 0x2250 <__vector_18+0x2a4>
    20f4:	b6 c1       	rjmp	.+876    	; 0x2462 <__vector_18+0x4b6>
    20f6:	8e 3f       	cpi	r24, 0xFE	; 254
    20f8:	91 05       	cpc	r25, r1
    20fa:	61 f1       	breq	.+88     	; 0x2154 <__vector_18+0x1a8>
    20fc:	8f 3f       	cpi	r24, 0xFF	; 255
    20fe:	91 05       	cpc	r25, r1
    2100:	29 f0       	breq	.+10     	; 0x210c <__vector_18+0x160>
    2102:	8d 3f       	cpi	r24, 0xFD	; 253
    2104:	91 05       	cpc	r25, r1
    2106:	09 f4       	brne	.+2      	; 0x210a <__vector_18+0x15e>
    2108:	36 c0       	rjmp	.+108    	; 0x2176 <__vector_18+0x1ca>
    210a:	ab c1       	rjmp	.+854    	; 0x2462 <__vector_18+0x4b6>
		{
			case 0xFF:	//Перейти в загрузчик
			answer[0] = lastCANmessage[0];
    210c:	80 91 a2 05 	lds	r24, 0x05A2	; 0x8005a2 <lastCANmessage>
    2110:	8c 83       	std	Y+4, r24	; 0x04
			answer[1] = loaderNodeNumberCached;
    2112:	80 91 bb 05 	lds	r24, 0x05BB	; 0x8005bb <loaderNodeNumberCached>
    2116:	8d 83       	std	Y+5, r24	; 0x05
			answer[2] = DEFAULT_LOADER_NODE_NUMBER;
    2118:	84 e2       	ldi	r24, 0x24	; 36
    211a:	8e 83       	std	Y+6, r24	; 0x06
			eeprom_write_byte(&LOADER_START_FLAG, 0xFF);
    211c:	6f ef       	ldi	r22, 0xFF	; 255
    211e:	86 ef       	ldi	r24, 0xF6	; 246
    2120:	9f e0       	ldi	r25, 0x0F	; 15
    2122:	63 d5       	rcall	.+2758   	; 0x2bea <eeprom_write_byte>
			answer[3] = eeprom_read_byte(&LOADER_START_FLAG);
    2124:	86 ef       	ldi	r24, 0xF6	; 246
    2126:	9f e0       	ldi	r25, 0x0F	; 15
    2128:	47 d5       	rcall	.+2702   	; 0x2bb8 <eeprom_read_byte>
    212a:	8f 83       	std	Y+7, r24	; 0x07
			transmit8BytesByCAN(NUM_ANSWER_PACK, answer);	//До конца прерывания контроллер перезагрузится
    212c:	ce 01       	movw	r24, r28
    212e:	04 96       	adiw	r24, 0x04	; 4
    2130:	bc 01       	movw	r22, r24
    2132:	8e e0       	ldi	r24, 0x0E	; 14
    2134:	0e 94 ab 03 	call	0x756	; 0x756 <_Z19transmit8BytesByCANhPh>
				: "n" (_SFR_MEM_ADDR(_WD_CONTROL_REG)),
				"r" ((uint8_t)(_BV(_WD_CHANGE_BIT) | _BV(WDE))),
				"r" ((uint8_t) ((value & 0x08 ? _WD_PS3_MASK : 0x00) |
						_BV(WDE) | (value & 0x07)) )
				: "r0"
		);
    2138:	86 e0       	ldi	r24, 0x06	; 6
    213a:	87 70       	andi	r24, 0x07	; 7
    213c:	88 60       	ori	r24, 0x08	; 8
    213e:	98 2f       	mov	r25, r24
    2140:	88 e1       	ldi	r24, 0x18	; 24
    2142:	0f b6       	in	r0, 0x3f	; 63
    2144:	f8 94       	cli
    2146:	a8 95       	wdr
    2148:	80 93 60 00 	sts	0x0060, r24	; 0x800060 <__TEXT_REGION_LENGTH__+0x7e0060>
    214c:	0f be       	out	0x3f, r0	; 63
    214e:	90 93 60 00 	sts	0x0060, r25	; 0x800060 <__TEXT_REGION_LENGTH__+0x7e0060>
				answer[5] = eeprom_read_byte(&constants[5*i+2]);
				answer[6] = eeprom_read_byte(&constants[5*i+3]);
				answer[7] = eeprom_read_byte(&constants[5*i+4]);
				if (i < (int)(lastMemIndex/5)) transmit8BytesByCAN(NUM_ANSWER_PACK, answer);	//последнее сообщение за нас отправит условие
			}
			break;
    2152:	ff cf       	rjmp	.-2      	; 0x2152 <__vector_18+0x1a6>
			wdt_enable(WDTO_1S);	//Watchdog на 1с.
			while(1);	//Для перезагрузки таймером; загрузчик отключает таймер.
			break;
			
			case 0xFE:	//Отключить загрузчик
			answer[0] = lastCANmessage[0];
    2154:	80 91 a2 05 	lds	r24, 0x05A2	; 0x8005a2 <lastCANmessage>
    2158:	8c 83       	std	Y+4, r24	; 0x04
			answer[1] = loaderNodeNumberCached;
    215a:	80 91 bb 05 	lds	r24, 0x05BB	; 0x8005bb <loaderNodeNumberCached>
    215e:	8d 83       	std	Y+5, r24	; 0x05
			answer[2] = DEFAULT_LOADER_NODE_NUMBER;
    2160:	84 e2       	ldi	r24, 0x24	; 36
    2162:	8e 83       	std	Y+6, r24	; 0x06
			eeprom_write_byte(&LOADER_START_FLAG, 0x00);
    2164:	60 e0       	ldi	r22, 0x00	; 0
    2166:	86 ef       	ldi	r24, 0xF6	; 246
    2168:	9f e0       	ldi	r25, 0x0F	; 15
    216a:	3f d5       	rcall	.+2686   	; 0x2bea <eeprom_write_byte>
			answer[3] = eeprom_read_byte(&LOADER_START_FLAG);
    216c:	86 ef       	ldi	r24, 0xF6	; 246
    216e:	9f e0       	ldi	r25, 0x0F	; 15
    2170:	23 d5       	rcall	.+2630   	; 0x2bb8 <eeprom_read_byte>
    2172:	8f 83       	std	Y+7, r24	; 0x07
			break;
    2174:	76 c1       	rjmp	.+748    	; 0x2462 <__vector_18+0x4b6>
			
			case 0xFD:	//Задать новый номер
			answer[0] = lastCANmessage[0];
    2176:	80 91 a2 05 	lds	r24, 0x05A2	; 0x8005a2 <lastCANmessage>
    217a:	8c 83       	std	Y+4, r24	; 0x04
			eeprom_write_byte(&loaderNodeNumber, lastCANmessage[2]);
    217c:	80 91 a4 05 	lds	r24, 0x05A4	; 0x8005a4 <lastCANmessage+0x2>
    2180:	68 2f       	mov	r22, r24
    2182:	8f e0       	ldi	r24, 0x0F	; 15
    2184:	90 e0       	ldi	r25, 0x00	; 0
    2186:	31 d5       	rcall	.+2658   	; 0x2bea <eeprom_write_byte>
			initCachedEEPValues();
    2188:	0e 94 e8 06 	call	0xdd0	; 0xdd0 <_Z19initCachedEEPValuesv>
			answer[1] = loaderNodeNumberCached;
    218c:	80 91 bb 05 	lds	r24, 0x05BB	; 0x8005bb <loaderNodeNumberCached>
    2190:	8d 83       	std	Y+5, r24	; 0x05
			break;
    2192:	67 c1       	rjmp	.+718    	; 0x2462 <__vector_18+0x4b6>
				return;
			}
			break;
			*/
			case 0x59:	//Ручное управление
			manualRequest = lastCANmessage[2];			//вкл/выкл ручной режим
    2194:	90 91 a4 05 	lds	r25, 0x05A4	; 0x8005a4 <lastCANmessage+0x2>
    2198:	81 e0       	ldi	r24, 0x01	; 1
    219a:	99 23       	and	r25, r25
    219c:	09 f4       	brne	.+2      	; 0x21a0 <__vector_18+0x1f4>
    219e:	80 e0       	ldi	r24, 0x00	; 0
    21a0:	80 93 6e 05 	sts	0x056E, r24	; 0x80056e <manualRequest>
			if (lastCANmessage[2])						//если включен, то:
    21a4:	80 91 a4 05 	lds	r24, 0x05A4	; 0x8005a4 <lastCANmessage+0x2>
    21a8:	88 23       	and	r24, r24
    21aa:	09 f4       	brne	.+2      	; 0x21ae <__vector_18+0x202>
    21ac:	50 c0       	rjmp	.+160    	; 0x224e <__vector_18+0x2a2>
			{
				setPin(pin_FAN_POWER, lastCANmessage[3]);	//вкл/выкл движки
    21ae:	90 91 a5 05 	lds	r25, 0x05A5	; 0x8005a5 <lastCANmessage+0x3>
    21b2:	81 e0       	ldi	r24, 0x01	; 1
    21b4:	99 23       	and	r25, r25
    21b6:	09 f4       	brne	.+2      	; 0x21ba <__vector_18+0x20e>
    21b8:	80 e0       	ldi	r24, 0x00	; 0
    21ba:	68 2f       	mov	r22, r24
    21bc:	80 ed       	ldi	r24, 0xD0	; 208
    21be:	4b d8       	rcall	.-3946   	; 0x1256 <_Z6setPinhb>
				setDrivePower(lastCANmessage[4]);			//задать обороты в %
    21c0:	80 91 a6 05 	lds	r24, 0x05A6	; 0x8005a6 <lastCANmessage+0x4>
    21c4:	d4 da       	rcall	.-2648   	; 0x176e <_Z13setDrivePowerh>
				err_CRIT.flag |= lastCANmessage[5];			//формировать крит.аварию
    21c6:	80 91 99 05 	lds	r24, 0x0599	; 0x800599 <err_CRIT+0x2>
    21ca:	28 2f       	mov	r18, r24
    21cc:	30 e0       	ldi	r19, 0x00	; 0
    21ce:	80 91 a7 05 	lds	r24, 0x05A7	; 0x8005a7 <lastCANmessage+0x5>
    21d2:	88 2f       	mov	r24, r24
    21d4:	90 e0       	ldi	r25, 0x00	; 0
    21d6:	82 2b       	or	r24, r18
    21d8:	93 2b       	or	r25, r19
    21da:	21 e0       	ldi	r18, 0x01	; 1
    21dc:	89 2b       	or	r24, r25
    21de:	09 f4       	brne	.+2      	; 0x21e2 <__vector_18+0x236>
    21e0:	20 e0       	ldi	r18, 0x00	; 0
    21e2:	20 93 99 05 	sts	0x0599, r18	; 0x800599 <err_CRIT+0x2>
				heat_request = lastCANmessage[6];			//формировать запрос на обогрев
    21e6:	80 91 a8 05 	lds	r24, 0x05A8	; 0x8005a8 <lastCANmessage+0x6>
    21ea:	80 93 69 05 	sts	0x0569, r24	; 0x800569 <heat_request>
				answer[0] = lastCANmessage[0];
    21ee:	80 91 a2 05 	lds	r24, 0x05A2	; 0x8005a2 <lastCANmessage>
    21f2:	8c 83       	std	Y+4, r24	; 0x04
				answer[1] = loaderNodeNumberCached;
    21f4:	80 91 bb 05 	lds	r24, 0x05BB	; 0x8005bb <loaderNodeNumberCached>
    21f8:	8d 83       	std	Y+5, r24	; 0x05
				answer[2] = manualRequest;
    21fa:	80 91 6e 05 	lds	r24, 0x056E	; 0x80056e <manualRequest>
    21fe:	8e 83       	std	Y+6, r24	; 0x06
				answer[3] = getPin(pin_FAN_POWER);
    2200:	80 ed       	ldi	r24, 0xD0	; 208
    2202:	6f d9       	rcall	.-3362   	; 0x14e2 <_Z6getPinh>
    2204:	8f 83       	std	Y+7, r24	; 0x07
				answer[4] = lastCANmessage[4];
    2206:	80 91 a6 05 	lds	r24, 0x05A6	; 0x8005a6 <lastCANmessage+0x4>
    220a:	88 87       	std	Y+8, r24	; 0x08
				answer[5] = err_CRIT.flag;
    220c:	80 91 99 05 	lds	r24, 0x0599	; 0x800599 <err_CRIT+0x2>
    2210:	89 87       	std	Y+9, r24	; 0x09
				answer[6] = heat_request;
    2212:	80 91 69 05 	lds	r24, 0x0569	; 0x800569 <heat_request>
    2216:	8a 87       	std	Y+10, r24	; 0x0a
				answer[7] = lastCANmessage[7];
    2218:	80 91 a9 05 	lds	r24, 0x05A9	; 0x8005a9 <lastCANmessage+0x7>
    221c:	8b 87       	std	Y+11, r24	; 0x0b
				if (lastCANmessage[7])
    221e:	80 91 a9 05 	lds	r24, 0x05A9	; 0x8005a9 <lastCANmessage+0x7>
    2222:	88 23       	and	r24, r24
    2224:	a1 f0       	breq	.+40     	; 0x224e <__vector_18+0x2a2>
				{
					transmit8BytesByCAN(NUM_ANSWER_PACK, answer);
    2226:	ce 01       	movw	r24, r28
    2228:	04 96       	adiw	r24, 0x04	; 4
    222a:	bc 01       	movw	r22, r24
    222c:	8e e0       	ldi	r24, 0x0E	; 14
    222e:	0e 94 ab 03 	call	0x756	; 0x756 <_Z19transmit8BytesByCANhPh>
    2232:	86 e0       	ldi	r24, 0x06	; 6
    2234:	87 70       	andi	r24, 0x07	; 7
    2236:	88 60       	ori	r24, 0x08	; 8
    2238:	98 2f       	mov	r25, r24
    223a:	88 e1       	ldi	r24, 0x18	; 24
    223c:	0f b6       	in	r0, 0x3f	; 63
    223e:	f8 94       	cli
    2240:	a8 95       	wdr
    2242:	80 93 60 00 	sts	0x0060, r24	; 0x800060 <__TEXT_REGION_LENGTH__+0x7e0060>
    2246:	0f be       	out	0x3f, r0	; 63
    2248:	90 93 60 00 	sts	0x0060, r25	; 0x800060 <__TEXT_REGION_LENGTH__+0x7e0060>
				answer[3] = getPin(pin_FAN_POWER);
				answer[4] = lastCANmessage[4];
				answer[5] = err_CRIT.flag;
				answer[6] = heat_request;
				answer[7] = lastCANmessage[7];
				if (lastCANmessage[7])
    224c:	ff cf       	rjmp	.-2      	; 0x224c <__vector_18+0x2a0>
					transmit8BytesByCAN(NUM_ANSWER_PACK, answer);
					wdt_enable(WDTO_1S);
					while(1);
				}
			}
			break;
    224e:	09 c1       	rjmp	.+530    	; 0x2462 <__vector_18+0x4b6>
			
			case 0x58:	//расширенная диагностика
			{	//скобки чтобы проиниализировать внутри переменную
			//пакет 0
			answer[0] = lastCANmessage[0];
    2250:	80 91 a2 05 	lds	r24, 0x05A2	; 0x8005a2 <lastCANmessage>
    2254:	8c 83       	std	Y+4, r24	; 0x04
			answer[1] = loaderNodeNumberCached;
    2256:	80 91 bb 05 	lds	r24, 0x05BB	; 0x8005bb <loaderNodeNumberCached>
    225a:	8d 83       	std	Y+5, r24	; 0x05
			answer[2] = 0;			//номер пакета
    225c:	1e 82       	std	Y+6, r1	; 0x06
			answer[3] = fbMas[1];	//движки начинаются с первого, а не с нулевого
    225e:	80 91 52 05 	lds	r24, 0x0552	; 0x800552 <__data_end+0x2>
    2262:	90 91 53 05 	lds	r25, 0x0553	; 0x800553 <__data_end+0x3>
    2266:	8f 83       	std	Y+7, r24	; 0x07
			answer[4] = fbMas[2];
    2268:	80 91 54 05 	lds	r24, 0x0554	; 0x800554 <__data_end+0x4>
    226c:	90 91 55 05 	lds	r25, 0x0555	; 0x800555 <__data_end+0x5>
    2270:	88 87       	std	Y+8, r24	; 0x08
			answer[5] = fbMas[3];
    2272:	80 91 56 05 	lds	r24, 0x0556	; 0x800556 <__data_end+0x6>
    2276:	90 91 57 05 	lds	r25, 0x0557	; 0x800557 <__data_end+0x7>
    227a:	89 87       	std	Y+9, r24	; 0x09
			answer[6] = fbMas[4];
    227c:	80 91 58 05 	lds	r24, 0x0558	; 0x800558 <__data_end+0x8>
    2280:	90 91 59 05 	lds	r25, 0x0559	; 0x800559 <__data_end+0x9>
    2284:	8a 87       	std	Y+10, r24	; 0x0a
			answer[7] = fbMas[5];
    2286:	80 91 5a 05 	lds	r24, 0x055A	; 0x80055a <__data_end+0xa>
    228a:	90 91 5b 05 	lds	r25, 0x055B	; 0x80055b <__data_end+0xb>
    228e:	8b 87       	std	Y+11, r24	; 0x0b
			transmit8BytesByCAN(NUM_ANSWER_PACK, answer);
    2290:	ce 01       	movw	r24, r28
    2292:	04 96       	adiw	r24, 0x04	; 4
    2294:	bc 01       	movw	r22, r24
    2296:	8e e0       	ldi	r24, 0x0E	; 14
    2298:	0e 94 ab 03 	call	0x756	; 0x756 <_Z19transmit8BytesByCANhPh>
			//пакет 1
			answer[0] = lastCANmessage[0];
    229c:	80 91 a2 05 	lds	r24, 0x05A2	; 0x8005a2 <lastCANmessage>
    22a0:	8c 83       	std	Y+4, r24	; 0x04
			answer[1] = loaderNodeNumberCached;
    22a2:	80 91 bb 05 	lds	r24, 0x05BB	; 0x8005bb <loaderNodeNumberCached>
    22a6:	8d 83       	std	Y+5, r24	; 0x05
			answer[2] = 1;
    22a8:	81 e0       	ldi	r24, 0x01	; 1
    22aa:	8e 83       	std	Y+6, r24	; 0x06
			answer[3] = fbMas[6];
    22ac:	80 91 5c 05 	lds	r24, 0x055C	; 0x80055c <__data_end+0xc>
    22b0:	90 91 5d 05 	lds	r25, 0x055D	; 0x80055d <__data_end+0xd>
    22b4:	8f 83       	std	Y+7, r24	; 0x07
			answer[4] = fbMas[7];
    22b6:	80 91 5e 05 	lds	r24, 0x055E	; 0x80055e <__data_end+0xe>
    22ba:	90 91 5f 05 	lds	r25, 0x055F	; 0x80055f <__data_end+0xf>
    22be:	88 87       	std	Y+8, r24	; 0x08
			answer[5] = fbMas[8];
    22c0:	80 91 60 05 	lds	r24, 0x0560	; 0x800560 <__data_end+0x10>
    22c4:	90 91 61 05 	lds	r25, 0x0561	; 0x800561 <__data_end+0x11>
    22c8:	89 87       	std	Y+9, r24	; 0x09
			answer[6] = fbMas[9];
    22ca:	80 91 62 05 	lds	r24, 0x0562	; 0x800562 <__data_end+0x12>
    22ce:	90 91 63 05 	lds	r25, 0x0563	; 0x800563 <__data_end+0x13>
    22d2:	8a 87       	std	Y+10, r24	; 0x0a
			answer[7] = fbMas[10];
    22d4:	80 91 64 05 	lds	r24, 0x0564	; 0x800564 <__data_end+0x14>
    22d8:	90 91 65 05 	lds	r25, 0x0565	; 0x800565 <__data_end+0x15>
    22dc:	8b 87       	std	Y+11, r24	; 0x0b
			transmit8BytesByCAN(NUM_ANSWER_PACK, answer);
    22de:	ce 01       	movw	r24, r28
    22e0:	04 96       	adiw	r24, 0x04	; 4
    22e2:	bc 01       	movw	r22, r24
    22e4:	8e e0       	ldi	r24, 0x0E	; 14
    22e6:	0e 94 ab 03 	call	0x756	; 0x756 <_Z19transmit8BytesByCANhPh>
			//пакет 2
			answer[0] = lastCANmessage[0];
    22ea:	80 91 a2 05 	lds	r24, 0x05A2	; 0x8005a2 <lastCANmessage>
    22ee:	8c 83       	std	Y+4, r24	; 0x04
			answer[1] = loaderNodeNumberCached;
    22f0:	80 91 bb 05 	lds	r24, 0x05BB	; 0x8005bb <loaderNodeNumberCached>
    22f4:	8d 83       	std	Y+5, r24	; 0x05
			answer[2] = 2;
    22f6:	82 e0       	ldi	r24, 0x02	; 2
    22f8:	8e 83       	std	Y+6, r24	; 0x06
			answer[3] = (uint8_t)(42*aread(pin_Power_measure)/1023);	//напряжение питания
    22fa:	83 ef       	ldi	r24, 0xF3	; 243
    22fc:	f9 d9       	rcall	.-3086   	; 0x16f0 <_Z5areadh>
    22fe:	9c 01       	movw	r18, r24
    2300:	4a e2       	ldi	r20, 0x2A	; 42
    2302:	42 9f       	mul	r20, r18
    2304:	c0 01       	movw	r24, r0
    2306:	43 9f       	mul	r20, r19
    2308:	90 0d       	add	r25, r0
    230a:	11 24       	eor	r1, r1
    230c:	2f ef       	ldi	r18, 0xFF	; 255
    230e:	33 e0       	ldi	r19, 0x03	; 3
    2310:	b9 01       	movw	r22, r18
    2312:	7a d1       	rcall	.+756    	; 0x2608 <__udivmodhi4>
    2314:	cb 01       	movw	r24, r22
    2316:	8f 83       	std	Y+7, r24	; 0x07
			uint8_t cachedFanSpeed = (uint8_t)(OCR1A*100/DEFAULT_PWM_MAX_COUNT);	//заполнение ШИМ движков %
    2318:	88 e8       	ldi	r24, 0x88	; 136
    231a:	90 e0       	ldi	r25, 0x00	; 0
    231c:	fc 01       	movw	r30, r24
    231e:	80 81       	ld	r24, Z
    2320:	91 81       	ldd	r25, Z+1	; 0x01
    2322:	24 e6       	ldi	r18, 0x64	; 100
    2324:	28 9f       	mul	r18, r24
    2326:	a0 01       	movw	r20, r0
    2328:	29 9f       	mul	r18, r25
    232a:	50 0d       	add	r21, r0
    232c:	11 24       	eor	r1, r1
    232e:	2f ef       	ldi	r18, 0xFF	; 255
    2330:	31 e0       	ldi	r19, 0x01	; 1
    2332:	ca 01       	movw	r24, r20
    2334:	b9 01       	movw	r22, r18
    2336:	68 d1       	rcall	.+720    	; 0x2608 <__udivmodhi4>
    2338:	cb 01       	movw	r24, r22
    233a:	89 83       	std	Y+1, r24	; 0x01
			if (cachedFanSpeed != 0 && cachedFanSpeed != 100) cachedFanSpeed++;
    233c:	89 81       	ldd	r24, Y+1	; 0x01
    233e:	88 23       	and	r24, r24
    2340:	31 f0       	breq	.+12     	; 0x234e <__vector_18+0x3a2>
    2342:	89 81       	ldd	r24, Y+1	; 0x01
    2344:	84 36       	cpi	r24, 0x64	; 100
    2346:	19 f0       	breq	.+6      	; 0x234e <__vector_18+0x3a2>
    2348:	89 81       	ldd	r24, Y+1	; 0x01
    234a:	8f 5f       	subi	r24, 0xFF	; 255
    234c:	89 83       	std	Y+1, r24	; 0x01
			answer[4] = cachedFanSpeed;
    234e:	89 81       	ldd	r24, Y+1	; 0x01
    2350:	88 87       	std	Y+8, r24	; 0x08
			answer[5] = getRoundedTempFromADC(NTC_type, aread(pin_NTC_LV));	//температура ADC
    2352:	82 ef       	ldi	r24, 0xF2	; 242
    2354:	cd d9       	rcall	.-3174   	; 0x16f0 <_Z5areadh>
    2356:	bc 01       	movw	r22, r24
    2358:	8c ec       	ldi	r24, 0xCC	; 204
    235a:	90 e1       	ldi	r25, 0x10	; 16
    235c:	0e 94 c1 05 	call	0xb82	; 0xb82 <_Z21getRoundedTempFromADCij>
    2360:	89 87       	std	Y+9, r24	; 0x09
			answer[6] = getPin(pin_FAN_POWER);	//питание движков включено
    2362:	80 ed       	ldi	r24, 0xD0	; 208
    2364:	be d8       	rcall	.-3716   	; 0x14e2 <_Z6getPinh>
    2366:	8a 87       	std	Y+10, r24	; 0x0a
			answer[7] = err_CRIT.counter_limit;	
    2368:	80 91 98 05 	lds	r24, 0x0598	; 0x800598 <err_CRIT+0x1>
    236c:	8b 87       	std	Y+11, r24	; 0x0b
			}
			break;
    236e:	79 c0       	rjmp	.+242    	; 0x2462 <__vector_18+0x4b6>
			
			case 0x57:	//Работа с EEPROM
			answer[0] = lastCANmessage[0];
    2370:	80 91 a2 05 	lds	r24, 0x05A2	; 0x8005a2 <lastCANmessage>
    2374:	8c 83       	std	Y+4, r24	; 0x04
			answer[1] = loaderNodeNumberCached;
    2376:	80 91 bb 05 	lds	r24, 0x05BB	; 0x8005bb <loaderNodeNumberCached>
    237a:	8d 83       	std	Y+5, r24	; 0x05
			if ((lastCANmessage[2] != 0xFF) && (lastCANmessage[2] <= lastMemIndex))
    237c:	80 91 a4 05 	lds	r24, 0x05A4	; 0x8005a4 <lastCANmessage+0x2>
    2380:	8f 3f       	cpi	r24, 0xFF	; 255
    2382:	81 f0       	breq	.+32     	; 0x23a4 <__vector_18+0x3f8>
    2384:	80 91 a4 05 	lds	r24, 0x05A4	; 0x8005a4 <lastCANmessage+0x2>
    2388:	8e 30       	cpi	r24, 0x0E	; 14
    238a:	60 f4       	brcc	.+24     	; 0x23a4 <__vector_18+0x3f8>
			{
				eeprom_write_byte(&constants[lastCANmessage[2]], lastCANmessage[3]);	//запись в EEMEM
    238c:	20 91 a5 05 	lds	r18, 0x05A5	; 0x8005a5 <lastCANmessage+0x3>
    2390:	80 91 a4 05 	lds	r24, 0x05A4	; 0x8005a4 <lastCANmessage+0x2>
    2394:	88 2f       	mov	r24, r24
    2396:	90 e0       	ldi	r25, 0x00	; 0
    2398:	80 50       	subi	r24, 0x00	; 0
    239a:	90 40       	sbci	r25, 0x00	; 0
    239c:	62 2f       	mov	r22, r18
    239e:	25 d4       	rcall	.+2122   	; 0x2bea <eeprom_write_byte>
				initCachedEEPValues();	//сразу обновляем
    23a0:	0e 94 e8 06 	call	0xdd0	; 0xdd0 <_Z19initCachedEEPValuesv>
			}
			//вывод EEMEM
			for (int i = 0; i <= (int)(lastMemIndex/5); i++)	// i - номер пакета
    23a4:	1b 82       	std	Y+3, r1	; 0x03
    23a6:	1a 82       	std	Y+2, r1	; 0x02
    23a8:	56 c0       	rjmp	.+172    	; 0x2456 <__vector_18+0x4aa>
			{
				answer[2] = i;				
    23aa:	8a 81       	ldd	r24, Y+2	; 0x02
    23ac:	8e 83       	std	Y+6, r24	; 0x06
				answer[3] = eeprom_read_byte(&constants[5*i+0]);		//значение переменной
    23ae:	2a 81       	ldd	r18, Y+2	; 0x02
    23b0:	3b 81       	ldd	r19, Y+3	; 0x03
    23b2:	c9 01       	movw	r24, r18
    23b4:	88 0f       	add	r24, r24
    23b6:	99 1f       	adc	r25, r25
    23b8:	88 0f       	add	r24, r24
    23ba:	99 1f       	adc	r25, r25
    23bc:	82 0f       	add	r24, r18
    23be:	93 1f       	adc	r25, r19
    23c0:	80 50       	subi	r24, 0x00	; 0
    23c2:	90 40       	sbci	r25, 0x00	; 0
    23c4:	f9 d3       	rcall	.+2034   	; 0x2bb8 <eeprom_read_byte>
    23c6:	8f 83       	std	Y+7, r24	; 0x07
				answer[4] = eeprom_read_byte(&constants[5*i+1]);
    23c8:	2a 81       	ldd	r18, Y+2	; 0x02
    23ca:	3b 81       	ldd	r19, Y+3	; 0x03
    23cc:	c9 01       	movw	r24, r18
    23ce:	88 0f       	add	r24, r24
    23d0:	99 1f       	adc	r25, r25
    23d2:	88 0f       	add	r24, r24
    23d4:	99 1f       	adc	r25, r25
    23d6:	82 0f       	add	r24, r18
    23d8:	93 1f       	adc	r25, r19
    23da:	01 96       	adiw	r24, 0x01	; 1
    23dc:	80 50       	subi	r24, 0x00	; 0
    23de:	90 40       	sbci	r25, 0x00	; 0
    23e0:	eb d3       	rcall	.+2006   	; 0x2bb8 <eeprom_read_byte>
    23e2:	88 87       	std	Y+8, r24	; 0x08
				answer[5] = eeprom_read_byte(&constants[5*i+2]);
    23e4:	2a 81       	ldd	r18, Y+2	; 0x02
    23e6:	3b 81       	ldd	r19, Y+3	; 0x03
    23e8:	c9 01       	movw	r24, r18
    23ea:	88 0f       	add	r24, r24
    23ec:	99 1f       	adc	r25, r25
    23ee:	88 0f       	add	r24, r24
    23f0:	99 1f       	adc	r25, r25
    23f2:	82 0f       	add	r24, r18
    23f4:	93 1f       	adc	r25, r19
    23f6:	02 96       	adiw	r24, 0x02	; 2
    23f8:	80 50       	subi	r24, 0x00	; 0
    23fa:	90 40       	sbci	r25, 0x00	; 0
    23fc:	dd d3       	rcall	.+1978   	; 0x2bb8 <eeprom_read_byte>
    23fe:	89 87       	std	Y+9, r24	; 0x09
				answer[6] = eeprom_read_byte(&constants[5*i+3]);
    2400:	2a 81       	ldd	r18, Y+2	; 0x02
    2402:	3b 81       	ldd	r19, Y+3	; 0x03
    2404:	c9 01       	movw	r24, r18
    2406:	88 0f       	add	r24, r24
    2408:	99 1f       	adc	r25, r25
    240a:	88 0f       	add	r24, r24
    240c:	99 1f       	adc	r25, r25
    240e:	82 0f       	add	r24, r18
    2410:	93 1f       	adc	r25, r19
    2412:	03 96       	adiw	r24, 0x03	; 3
    2414:	80 50       	subi	r24, 0x00	; 0
    2416:	90 40       	sbci	r25, 0x00	; 0
    2418:	cf d3       	rcall	.+1950   	; 0x2bb8 <eeprom_read_byte>
    241a:	8a 87       	std	Y+10, r24	; 0x0a
				answer[7] = eeprom_read_byte(&constants[5*i+4]);
    241c:	2a 81       	ldd	r18, Y+2	; 0x02
    241e:	3b 81       	ldd	r19, Y+3	; 0x03
    2420:	c9 01       	movw	r24, r18
    2422:	88 0f       	add	r24, r24
    2424:	99 1f       	adc	r25, r25
    2426:	88 0f       	add	r24, r24
    2428:	99 1f       	adc	r25, r25
    242a:	82 0f       	add	r24, r18
    242c:	93 1f       	adc	r25, r19
    242e:	04 96       	adiw	r24, 0x04	; 4
    2430:	80 50       	subi	r24, 0x00	; 0
    2432:	90 40       	sbci	r25, 0x00	; 0
    2434:	c1 d3       	rcall	.+1922   	; 0x2bb8 <eeprom_read_byte>
    2436:	8b 87       	std	Y+11, r24	; 0x0b
				if (i < (int)(lastMemIndex/5)) transmit8BytesByCAN(NUM_ANSWER_PACK, answer);	//последнее сообщение за нас отправит условие
    2438:	8a 81       	ldd	r24, Y+2	; 0x02
    243a:	9b 81       	ldd	r25, Y+3	; 0x03
    243c:	02 97       	sbiw	r24, 0x02	; 2
    243e:	34 f4       	brge	.+12     	; 0x244c <__vector_18+0x4a0>
    2440:	ce 01       	movw	r24, r28
    2442:	04 96       	adiw	r24, 0x04	; 4
    2444:	bc 01       	movw	r22, r24
    2446:	8e e0       	ldi	r24, 0x0E	; 14
    2448:	0e 94 ab 03 	call	0x756	; 0x756 <_Z19transmit8BytesByCANhPh>
			{
				eeprom_write_byte(&constants[lastCANmessage[2]], lastCANmessage[3]);	//запись в EEMEM
				initCachedEEPValues();	//сразу обновляем
			}
			//вывод EEMEM
			for (int i = 0; i <= (int)(lastMemIndex/5); i++)	// i - номер пакета
    244c:	8a 81       	ldd	r24, Y+2	; 0x02
    244e:	9b 81       	ldd	r25, Y+3	; 0x03
    2450:	01 96       	adiw	r24, 0x01	; 1
    2452:	9b 83       	std	Y+3, r25	; 0x03
    2454:	8a 83       	std	Y+2, r24	; 0x02
    2456:	8a 81       	ldd	r24, Y+2	; 0x02
    2458:	9b 81       	ldd	r25, Y+3	; 0x03
    245a:	03 97       	sbiw	r24, 0x03	; 3
    245c:	0c f4       	brge	.+2      	; 0x2460 <__vector_18+0x4b4>
    245e:	a5 cf       	rjmp	.-182    	; 0x23aa <__vector_18+0x3fe>
				answer[5] = eeprom_read_byte(&constants[5*i+2]);
				answer[6] = eeprom_read_byte(&constants[5*i+3]);
				answer[7] = eeprom_read_byte(&constants[5*i+4]);
				if (i < (int)(lastMemIndex/5)) transmit8BytesByCAN(NUM_ANSWER_PACK, answer);	//последнее сообщение за нас отправит условие
			}
			break;
    2460:	00 00       	nop
		}//eo switch(lastCANmessage[0])
		transmit8BytesByCAN(NUM_ANSWER_PACK, answer);
    2462:	ce 01       	movw	r24, r28
    2464:	04 96       	adiw	r24, 0x04	; 4
    2466:	bc 01       	movw	r22, r24
    2468:	8e e0       	ldi	r24, 0x0E	; 14
    246a:	0e 94 ab 03 	call	0x756	; 0x756 <_Z19transmit8BytesByCANhPh>
	}//eo if (readMessageWithAllRoutine())
}
    246e:	2f 96       	adiw	r28, 0x0f	; 15
    2470:	0f b6       	in	r0, 0x3f	; 63
    2472:	f8 94       	cli
    2474:	de bf       	out	0x3e, r29	; 62
    2476:	0f be       	out	0x3f, r0	; 63
    2478:	cd bf       	out	0x3d, r28	; 61
    247a:	df 91       	pop	r29
    247c:	cf 91       	pop	r28
    247e:	ff 91       	pop	r31
    2480:	ef 91       	pop	r30
    2482:	bf 91       	pop	r27
    2484:	af 91       	pop	r26
    2486:	9f 91       	pop	r25
    2488:	8f 91       	pop	r24
    248a:	7f 91       	pop	r23
    248c:	6f 91       	pop	r22
    248e:	5f 91       	pop	r21
    2490:	4f 91       	pop	r20
    2492:	3f 91       	pop	r19
    2494:	2f 91       	pop	r18
    2496:	0f 90       	pop	r0
    2498:	00 92 5b 00 	sts	0x005B, r0	; 0x80005b <__TEXT_REGION_LENGTH__+0x7e005b>
    249c:	0f 90       	pop	r0
    249e:	00 92 5f 00 	sts	0x005F, r0	; 0x80005f <__TEXT_REGION_LENGTH__+0x7e005f>
    24a2:	0f 90       	pop	r0
    24a4:	1f 90       	pop	r1
    24a6:	18 95       	reti

000024a8 <main>:

//основной код
int main(void)
{	
    24a8:	cf 93       	push	r28
    24aa:	df 93       	push	r29
    24ac:	cd b7       	in	r28, 0x3d	; 61
    24ae:	de b7       	in	r29, 0x3e	; 62
	cli();
    24b0:	f8 94       	cli
	eeprom_update_byte(&LOADER_START_FLAG, 0x00);	//если попали в main то сразу отключаем загрузчик
    24b2:	60 e0       	ldi	r22, 0x00	; 0
    24b4:	86 ef       	ldi	r24, 0xF6	; 246
    24b6:	9f e0       	ldi	r25, 0x0F	; 15
    24b8:	87 d3       	rcall	.+1806   	; 0x2bc8 <eeprom_update_byte>
	initCachedEEPValues();		//кэшируем еепром
    24ba:	0e 94 e8 06 	call	0xdd0	; 0xdd0 <_Z19initCachedEEPValuesv>
	config();					//настраиваем порты
    24be:	0e 94 56 08 	call	0x10ac	; 0x10ac <_Z6configv>
	can_init();					//инициализация CAN
    24c2:	0e 94 76 00 	call	0xec	; 0xec <_Z8can_initv>
	configMobs();				//настраиваем CAN
    24c6:	0e 94 91 07 	call	0xf22	; 0xf22 <_Z10configMobsv>
	sei();
    24ca:	78 94       	sei
	
	index = loaderNodeNumberCached - DEFAULT_LOADER_NODE_NUMBER;	//расчет позиции ТЗВ по её ноде
    24cc:	80 91 bb 05 	lds	r24, 0x05BB	; 0x8005bb <loaderNodeNumberCached>
    24d0:	84 52       	subi	r24, 0x24	; 36
    24d2:	80 93 bc 05 	sts	0x05BC, r24	; 0x8005bc <index>
	//wdt_enable(WDTO_2S);		//заводим сторож от зависания
	
	while (1)	//основной цикл
	{
		heat_state_interim |= !getPin(pin_HEAT_CHECK_LV);	//записываем единичку если поймали сигнал с ПКБН. обнуляем по таймеру.
    24d6:	82 ed       	ldi	r24, 0xD2	; 210
    24d8:	04 d8       	rcall	.-4088   	; 0x14e2 <_Z6getPinh>
    24da:	98 2f       	mov	r25, r24
    24dc:	81 e0       	ldi	r24, 0x01	; 1
    24de:	89 27       	eor	r24, r25
    24e0:	90 91 6b 05 	lds	r25, 0x056B	; 0x80056b <heat_state_interim>
    24e4:	29 2f       	mov	r18, r25
    24e6:	30 e0       	ldi	r19, 0x00	; 0
    24e8:	88 2f       	mov	r24, r24
    24ea:	90 e0       	ldi	r25, 0x00	; 0
    24ec:	82 2b       	or	r24, r18
    24ee:	93 2b       	or	r25, r19
    24f0:	21 e0       	ldi	r18, 0x01	; 1
    24f2:	89 2b       	or	r24, r25
    24f4:	09 f4       	brne	.+2      	; 0x24f8 <main+0x50>
    24f6:	20 e0       	ldi	r18, 0x00	; 0
    24f8:	20 93 6b 05 	sts	0x056B, r18	; 0x80056b <heat_state_interim>
		if (flagTimeToTransmit)
    24fc:	80 91 ac 05 	lds	r24, 0x05AC	; 0x8005ac <flagTimeToTransmit>
    2500:	88 23       	and	r24, r24
    2502:	81 f0       	breq	.+32     	; 0x2524 <main+0x7c>
		{
			sendStat();		//отправка статистики
    2504:	0e 94 ba 07 	call	0xf74	; 0xf74 <_Z8sendStatv>
			flagTimeToTransmit = 0;
    2508:	10 92 ac 05 	sts	0x05AC, r1	; 0x8005ac <flagTimeToTransmit>
			debugFlag = !debugFlag;
    250c:	90 91 a1 05 	lds	r25, 0x05A1	; 0x8005a1 <debugFlag>
    2510:	81 e0       	ldi	r24, 0x01	; 1
    2512:	89 27       	eor	r24, r25
    2514:	80 93 a1 05 	sts	0x05A1, r24	; 0x8005a1 <debugFlag>
			setPin(pin_DAIG, debugFlag);
    2518:	80 91 a1 05 	lds	r24, 0x05A1	; 0x8005a1 <debugFlag>
    251c:	68 2f       	mov	r22, r24
    251e:	82 ea       	ldi	r24, 0xA2	; 162
    2520:	0e 94 2b 09 	call	0x1256	; 0x1256 <_Z6setPinhb>
		transmit8BytesByCAN(NUM_ANSWER_PACK, answer);
	}//eo if (readMessageWithAllRoutine())
}

//основной код
int main(void)
    2524:	d8 cf       	rjmp	.-80     	; 0x24d6 <main+0x2e>

00002526 <_Z41__static_initialization_and_destruction_0ii>:
			debugFlag = !debugFlag;
			setPin(pin_DAIG, debugFlag);
		}
	}
	return 0;
    2526:	0f 93       	push	r16
    2528:	cf 93       	push	r28
    252a:	df 93       	push	r29
    252c:	00 d0       	rcall	.+0      	; 0x252e <_Z41__static_initialization_and_destruction_0ii+0x8>
    252e:	00 d0       	rcall	.+0      	; 0x2530 <_Z41__static_initialization_and_destruction_0ii+0xa>
    2530:	cd b7       	in	r28, 0x3d	; 61
    2532:	de b7       	in	r29, 0x3e	; 62
    2534:	9a 83       	std	Y+2, r25	; 0x02
    2536:	89 83       	std	Y+1, r24	; 0x01
    2538:	7c 83       	std	Y+4, r23	; 0x04
    253a:	6b 83       	std	Y+3, r22	; 0x03
    253c:	89 81       	ldd	r24, Y+1	; 0x01
    253e:	9a 81       	ldd	r25, Y+2	; 0x02
    2540:	01 97       	sbiw	r24, 0x01	; 1
    2542:	09 f0       	breq	.+2      	; 0x2546 <_Z41__static_initialization_and_destruction_0ii+0x20>
    2544:	3e c0       	rjmp	.+124    	; 0x25c2 <_Z41__static_initialization_and_destruction_0ii+0x9c>
    2546:	8b 81       	ldd	r24, Y+3	; 0x03
    2548:	9c 81       	ldd	r25, Y+4	; 0x04
    254a:	01 96       	adiw	r24, 0x01	; 1
    254c:	d1 f5       	brne	.+116    	; 0x25c2 <_Z41__static_initialization_and_destruction_0ii+0x9c>
	}
private:
	uint8_t counter;
};

Errors err_NTC_ovh;				//перегрев NTC
    254e:	8f e6       	ldi	r24, 0x6F	; 111
    2550:	95 e0       	ldi	r25, 0x05	; 5
    2552:	0e 94 10 06 	call	0xc20	; 0xc20 <_ZN6ErrorsC1Ev>
Errors err_NTC_lock;			//замыкание NTC
    2556:	84 e7       	ldi	r24, 0x74	; 116
    2558:	95 e0       	ldi	r25, 0x05	; 5
    255a:	0e 94 10 06 	call	0xc20	; 0xc20 <_ZN6ErrorsC1Ev>
Errors err_NTC_break;			//обрыв NTC
    255e:	89 e7       	ldi	r24, 0x79	; 121
    2560:	95 e0       	ldi	r25, 0x05	; 5
    2562:	0e 94 10 06 	call	0xc20	; 0xc20 <_ZN6ErrorsC1Ev>
Errors err_FAN_dismatch(&err_FAN_dismatch.hold, hold_error, &err_FAN_dismatch.counter_limit, DEFAULT_FB_ERR_LIMIT);		//неисправность двигателя, фильтр 5 секунд
    2566:	02 e3       	ldi	r16, 0x32	; 50
    2568:	2f e7       	ldi	r18, 0x7F	; 127
    256a:	35 e0       	ldi	r19, 0x05	; 5
    256c:	40 e0       	ldi	r20, 0x00	; 0
    256e:	6e e7       	ldi	r22, 0x7E	; 126
    2570:	75 e0       	ldi	r23, 0x05	; 5
    2572:	8e e7       	ldi	r24, 0x7E	; 126
    2574:	95 e0       	ldi	r25, 0x05	; 5
    2576:	0e 94 31 06 	call	0xc62	; 0xc62 <_ZN6ErrorsC1EPbbPhh>
Errors err_undervolt;			//низкое напряжение двигателей
    257a:	83 e8       	ldi	r24, 0x83	; 131
    257c:	95 e0       	ldi	r25, 0x05	; 5
    257e:	0e 94 10 06 	call	0xc20	; 0xc20 <_ZN6ErrorsC1Ev>
Errors err_overvolt;			//высокое напряжение двигателей
    2582:	88 e8       	ldi	r24, 0x88	; 136
    2584:	95 e0       	ldi	r25, 0x05	; 5
    2586:	0e 94 10 06 	call	0xc20	; 0xc20 <_ZN6ErrorsC1Ev>
Errors err_CAN_disconnect;		//отвал CAN
    258a:	8d e8       	ldi	r24, 0x8D	; 141
    258c:	95 e0       	ldi	r25, 0x05	; 5
    258e:	0e 94 10 06 	call	0xc20	; 0xc20 <_ZN6ErrorsC1Ev>
Errors err_PKBN_break;		//отвал платы контроля блока нагрева
    2592:	82 e9       	ldi	r24, 0x92	; 146
    2594:	95 e0       	ldi	r25, 0x05	; 5
    2596:	0e 94 10 06 	call	0xc20	; 0xc20 <_ZN6ErrorsC1Ev>
Errors err_CRIT(&err_CRIT.hold, hold_crit, &err_CRIT.counter_limit, DEFAULT_CRIT_ERR_LIMIT);				//критическая авария, не выпадаем из неё до перезагрузки
    259a:	0e e1       	ldi	r16, 0x1E	; 30
    259c:	28 e9       	ldi	r18, 0x98	; 152
    259e:	35 e0       	ldi	r19, 0x05	; 5
    25a0:	41 e0       	ldi	r20, 0x01	; 1
    25a2:	67 e9       	ldi	r22, 0x97	; 151
    25a4:	75 e0       	ldi	r23, 0x05	; 5
    25a6:	87 e9       	ldi	r24, 0x97	; 151
    25a8:	95 e0       	ldi	r25, 0x05	; 5
    25aa:	0e 94 31 06 	call	0xc62	; 0xc62 <_ZN6ErrorsC1EPbbPhh>
Errors purge_finished(&purge_finished.hold, 0, &purge_finished.counter_limit, 50);		//событие продувка (не ошибка, просто конструктор удобный :) 5 секунд)
    25ae:	02 e3       	ldi	r16, 0x32	; 50
    25b0:	2d e9       	ldi	r18, 0x9D	; 157
    25b2:	35 e0       	ldi	r19, 0x05	; 5
    25b4:	40 e0       	ldi	r20, 0x00	; 0
    25b6:	6c e9       	ldi	r22, 0x9C	; 156
    25b8:	75 e0       	ldi	r23, 0x05	; 5
    25ba:	8c e9       	ldi	r24, 0x9C	; 156
    25bc:	95 e0       	ldi	r25, 0x05	; 5
    25be:	0e 94 31 06 	call	0xc62	; 0xc62 <_ZN6ErrorsC1EPbbPhh>
			debugFlag = !debugFlag;
			setPin(pin_DAIG, debugFlag);
		}
	}
	return 0;
    25c2:	0f 90       	pop	r0
    25c4:	0f 90       	pop	r0
    25c6:	0f 90       	pop	r0
    25c8:	0f 90       	pop	r0
    25ca:	df 91       	pop	r29
    25cc:	cf 91       	pop	r28
    25ce:	0f 91       	pop	r16
    25d0:	08 95       	ret

000025d2 <_GLOBAL__sub_I_list_of_ADC_3988>:
    25d2:	cf 93       	push	r28
    25d4:	df 93       	push	r29
    25d6:	cd b7       	in	r28, 0x3d	; 61
    25d8:	de b7       	in	r29, 0x3e	; 62
    25da:	6f ef       	ldi	r22, 0xFF	; 255
    25dc:	7f ef       	ldi	r23, 0xFF	; 255
    25de:	81 e0       	ldi	r24, 0x01	; 1
    25e0:	90 e0       	ldi	r25, 0x00	; 0
    25e2:	a1 df       	rcall	.-190    	; 0x2526 <_Z41__static_initialization_and_destruction_0ii>
    25e4:	df 91       	pop	r29
    25e6:	cf 91       	pop	r28
    25e8:	08 95       	ret

000025ea <__mulsi3>:
    25ea:	db 01       	movw	r26, r22
    25ec:	8f 93       	push	r24
    25ee:	9f 93       	push	r25
    25f0:	5d d0       	rcall	.+186    	; 0x26ac <__muluhisi3>
    25f2:	bf 91       	pop	r27
    25f4:	af 91       	pop	r26
    25f6:	a2 9f       	mul	r26, r18
    25f8:	80 0d       	add	r24, r0
    25fa:	91 1d       	adc	r25, r1
    25fc:	a3 9f       	mul	r26, r19
    25fe:	90 0d       	add	r25, r0
    2600:	b2 9f       	mul	r27, r18
    2602:	90 0d       	add	r25, r0
    2604:	11 24       	eor	r1, r1
    2606:	08 95       	ret

00002608 <__udivmodhi4>:
    2608:	aa 1b       	sub	r26, r26
    260a:	bb 1b       	sub	r27, r27
    260c:	51 e1       	ldi	r21, 0x11	; 17
    260e:	07 c0       	rjmp	.+14     	; 0x261e <__udivmodhi4_ep>

00002610 <__udivmodhi4_loop>:
    2610:	aa 1f       	adc	r26, r26
    2612:	bb 1f       	adc	r27, r27
    2614:	a6 17       	cp	r26, r22
    2616:	b7 07       	cpc	r27, r23
    2618:	10 f0       	brcs	.+4      	; 0x261e <__udivmodhi4_ep>
    261a:	a6 1b       	sub	r26, r22
    261c:	b7 0b       	sbc	r27, r23

0000261e <__udivmodhi4_ep>:
    261e:	88 1f       	adc	r24, r24
    2620:	99 1f       	adc	r25, r25
    2622:	5a 95       	dec	r21
    2624:	a9 f7       	brne	.-22     	; 0x2610 <__udivmodhi4_loop>
    2626:	80 95       	com	r24
    2628:	90 95       	com	r25
    262a:	bc 01       	movw	r22, r24
    262c:	cd 01       	movw	r24, r26
    262e:	08 95       	ret

00002630 <__udivmodsi4>:
    2630:	a1 e2       	ldi	r26, 0x21	; 33
    2632:	1a 2e       	mov	r1, r26
    2634:	aa 1b       	sub	r26, r26
    2636:	bb 1b       	sub	r27, r27
    2638:	fd 01       	movw	r30, r26
    263a:	0d c0       	rjmp	.+26     	; 0x2656 <__udivmodsi4_ep>

0000263c <__udivmodsi4_loop>:
    263c:	aa 1f       	adc	r26, r26
    263e:	bb 1f       	adc	r27, r27
    2640:	ee 1f       	adc	r30, r30
    2642:	ff 1f       	adc	r31, r31
    2644:	a2 17       	cp	r26, r18
    2646:	b3 07       	cpc	r27, r19
    2648:	e4 07       	cpc	r30, r20
    264a:	f5 07       	cpc	r31, r21
    264c:	20 f0       	brcs	.+8      	; 0x2656 <__udivmodsi4_ep>
    264e:	a2 1b       	sub	r26, r18
    2650:	b3 0b       	sbc	r27, r19
    2652:	e4 0b       	sbc	r30, r20
    2654:	f5 0b       	sbc	r31, r21

00002656 <__udivmodsi4_ep>:
    2656:	66 1f       	adc	r22, r22
    2658:	77 1f       	adc	r23, r23
    265a:	88 1f       	adc	r24, r24
    265c:	99 1f       	adc	r25, r25
    265e:	1a 94       	dec	r1
    2660:	69 f7       	brne	.-38     	; 0x263c <__udivmodsi4_loop>
    2662:	60 95       	com	r22
    2664:	70 95       	com	r23
    2666:	80 95       	com	r24
    2668:	90 95       	com	r25
    266a:	9b 01       	movw	r18, r22
    266c:	ac 01       	movw	r20, r24
    266e:	bd 01       	movw	r22, r26
    2670:	cf 01       	movw	r24, r30
    2672:	08 95       	ret

00002674 <__divmodsi4>:
    2674:	05 2e       	mov	r0, r21
    2676:	97 fb       	bst	r25, 7
    2678:	16 f4       	brtc	.+4      	; 0x267e <__divmodsi4+0xa>
    267a:	00 94       	com	r0
    267c:	0f d0       	rcall	.+30     	; 0x269c <__negsi2>
    267e:	57 fd       	sbrc	r21, 7
    2680:	05 d0       	rcall	.+10     	; 0x268c <__divmodsi4_neg2>
    2682:	d6 df       	rcall	.-84     	; 0x2630 <__udivmodsi4>
    2684:	07 fc       	sbrc	r0, 7
    2686:	02 d0       	rcall	.+4      	; 0x268c <__divmodsi4_neg2>
    2688:	46 f4       	brtc	.+16     	; 0x269a <__divmodsi4_exit>
    268a:	08 c0       	rjmp	.+16     	; 0x269c <__negsi2>

0000268c <__divmodsi4_neg2>:
    268c:	50 95       	com	r21
    268e:	40 95       	com	r20
    2690:	30 95       	com	r19
    2692:	21 95       	neg	r18
    2694:	3f 4f       	sbci	r19, 0xFF	; 255
    2696:	4f 4f       	sbci	r20, 0xFF	; 255
    2698:	5f 4f       	sbci	r21, 0xFF	; 255

0000269a <__divmodsi4_exit>:
    269a:	08 95       	ret

0000269c <__negsi2>:
    269c:	90 95       	com	r25
    269e:	80 95       	com	r24
    26a0:	70 95       	com	r23
    26a2:	61 95       	neg	r22
    26a4:	7f 4f       	sbci	r23, 0xFF	; 255
    26a6:	8f 4f       	sbci	r24, 0xFF	; 255
    26a8:	9f 4f       	sbci	r25, 0xFF	; 255
    26aa:	08 95       	ret

000026ac <__muluhisi3>:
    26ac:	12 d0       	rcall	.+36     	; 0x26d2 <__umulhisi3>
    26ae:	a5 9f       	mul	r26, r21
    26b0:	90 0d       	add	r25, r0
    26b2:	b4 9f       	mul	r27, r20
    26b4:	90 0d       	add	r25, r0
    26b6:	a4 9f       	mul	r26, r20
    26b8:	80 0d       	add	r24, r0
    26ba:	91 1d       	adc	r25, r1
    26bc:	11 24       	eor	r1, r1
    26be:	08 95       	ret

000026c0 <__tablejump2__>:
    26c0:	ee 0f       	add	r30, r30
    26c2:	ff 1f       	adc	r31, r31
    26c4:	00 24       	eor	r0, r0
    26c6:	00 1c       	adc	r0, r0
    26c8:	0b be       	out	0x3b, r0	; 59
    26ca:	07 90       	elpm	r0, Z+
    26cc:	f6 91       	elpm	r31, Z
    26ce:	e0 2d       	mov	r30, r0
    26d0:	09 94       	ijmp

000026d2 <__umulhisi3>:
    26d2:	a2 9f       	mul	r26, r18
    26d4:	b0 01       	movw	r22, r0
    26d6:	b3 9f       	mul	r27, r19
    26d8:	c0 01       	movw	r24, r0
    26da:	a3 9f       	mul	r26, r19
    26dc:	70 0d       	add	r23, r0
    26de:	81 1d       	adc	r24, r1
    26e0:	11 24       	eor	r1, r1
    26e2:	91 1d       	adc	r25, r1
    26e4:	b2 9f       	mul	r27, r18
    26e6:	70 0d       	add	r23, r0
    26e8:	81 1d       	adc	r24, r1
    26ea:	11 24       	eor	r1, r1
    26ec:	91 1d       	adc	r25, r1
    26ee:	08 95       	ret

000026f0 <__subsf3>:
    26f0:	50 58       	subi	r21, 0x80	; 128

000026f2 <__addsf3>:
    26f2:	bb 27       	eor	r27, r27
    26f4:	aa 27       	eor	r26, r26
    26f6:	0e d0       	rcall	.+28     	; 0x2714 <__addsf3x>
    26f8:	75 c1       	rjmp	.+746    	; 0x29e4 <__fp_round>
    26fa:	66 d1       	rcall	.+716    	; 0x29c8 <__fp_pscA>
    26fc:	30 f0       	brcs	.+12     	; 0x270a <__addsf3+0x18>
    26fe:	6b d1       	rcall	.+726    	; 0x29d6 <__fp_pscB>
    2700:	20 f0       	brcs	.+8      	; 0x270a <__addsf3+0x18>
    2702:	31 f4       	brne	.+12     	; 0x2710 <__addsf3+0x1e>
    2704:	9f 3f       	cpi	r25, 0xFF	; 255
    2706:	11 f4       	brne	.+4      	; 0x270c <__addsf3+0x1a>
    2708:	1e f4       	brtc	.+6      	; 0x2710 <__addsf3+0x1e>
    270a:	5b c1       	rjmp	.+694    	; 0x29c2 <__fp_nan>
    270c:	0e f4       	brtc	.+2      	; 0x2710 <__addsf3+0x1e>
    270e:	e0 95       	com	r30
    2710:	e7 fb       	bst	r30, 7
    2712:	51 c1       	rjmp	.+674    	; 0x29b6 <__fp_inf>

00002714 <__addsf3x>:
    2714:	e9 2f       	mov	r30, r25
    2716:	77 d1       	rcall	.+750    	; 0x2a06 <__fp_split3>
    2718:	80 f3       	brcs	.-32     	; 0x26fa <__addsf3+0x8>
    271a:	ba 17       	cp	r27, r26
    271c:	62 07       	cpc	r22, r18
    271e:	73 07       	cpc	r23, r19
    2720:	84 07       	cpc	r24, r20
    2722:	95 07       	cpc	r25, r21
    2724:	18 f0       	brcs	.+6      	; 0x272c <__addsf3x+0x18>
    2726:	71 f4       	brne	.+28     	; 0x2744 <__addsf3x+0x30>
    2728:	9e f5       	brtc	.+102    	; 0x2790 <__addsf3x+0x7c>
    272a:	8f c1       	rjmp	.+798    	; 0x2a4a <__fp_zero>
    272c:	0e f4       	brtc	.+2      	; 0x2730 <__addsf3x+0x1c>
    272e:	e0 95       	com	r30
    2730:	0b 2e       	mov	r0, r27
    2732:	ba 2f       	mov	r27, r26
    2734:	a0 2d       	mov	r26, r0
    2736:	0b 01       	movw	r0, r22
    2738:	b9 01       	movw	r22, r18
    273a:	90 01       	movw	r18, r0
    273c:	0c 01       	movw	r0, r24
    273e:	ca 01       	movw	r24, r20
    2740:	a0 01       	movw	r20, r0
    2742:	11 24       	eor	r1, r1
    2744:	ff 27       	eor	r31, r31
    2746:	59 1b       	sub	r21, r25
    2748:	99 f0       	breq	.+38     	; 0x2770 <__addsf3x+0x5c>
    274a:	59 3f       	cpi	r21, 0xF9	; 249
    274c:	50 f4       	brcc	.+20     	; 0x2762 <__addsf3x+0x4e>
    274e:	50 3e       	cpi	r21, 0xE0	; 224
    2750:	68 f1       	brcs	.+90     	; 0x27ac <__addsf3x+0x98>
    2752:	1a 16       	cp	r1, r26
    2754:	f0 40       	sbci	r31, 0x00	; 0
    2756:	a2 2f       	mov	r26, r18
    2758:	23 2f       	mov	r18, r19
    275a:	34 2f       	mov	r19, r20
    275c:	44 27       	eor	r20, r20
    275e:	58 5f       	subi	r21, 0xF8	; 248
    2760:	f3 cf       	rjmp	.-26     	; 0x2748 <__addsf3x+0x34>
    2762:	46 95       	lsr	r20
    2764:	37 95       	ror	r19
    2766:	27 95       	ror	r18
    2768:	a7 95       	ror	r26
    276a:	f0 40       	sbci	r31, 0x00	; 0
    276c:	53 95       	inc	r21
    276e:	c9 f7       	brne	.-14     	; 0x2762 <__addsf3x+0x4e>
    2770:	7e f4       	brtc	.+30     	; 0x2790 <__addsf3x+0x7c>
    2772:	1f 16       	cp	r1, r31
    2774:	ba 0b       	sbc	r27, r26
    2776:	62 0b       	sbc	r22, r18
    2778:	73 0b       	sbc	r23, r19
    277a:	84 0b       	sbc	r24, r20
    277c:	ba f0       	brmi	.+46     	; 0x27ac <__addsf3x+0x98>
    277e:	91 50       	subi	r25, 0x01	; 1
    2780:	a1 f0       	breq	.+40     	; 0x27aa <__addsf3x+0x96>
    2782:	ff 0f       	add	r31, r31
    2784:	bb 1f       	adc	r27, r27
    2786:	66 1f       	adc	r22, r22
    2788:	77 1f       	adc	r23, r23
    278a:	88 1f       	adc	r24, r24
    278c:	c2 f7       	brpl	.-16     	; 0x277e <__addsf3x+0x6a>
    278e:	0e c0       	rjmp	.+28     	; 0x27ac <__addsf3x+0x98>
    2790:	ba 0f       	add	r27, r26
    2792:	62 1f       	adc	r22, r18
    2794:	73 1f       	adc	r23, r19
    2796:	84 1f       	adc	r24, r20
    2798:	48 f4       	brcc	.+18     	; 0x27ac <__addsf3x+0x98>
    279a:	87 95       	ror	r24
    279c:	77 95       	ror	r23
    279e:	67 95       	ror	r22
    27a0:	b7 95       	ror	r27
    27a2:	f7 95       	ror	r31
    27a4:	9e 3f       	cpi	r25, 0xFE	; 254
    27a6:	08 f0       	brcs	.+2      	; 0x27aa <__addsf3x+0x96>
    27a8:	b3 cf       	rjmp	.-154    	; 0x2710 <__addsf3+0x1e>
    27aa:	93 95       	inc	r25
    27ac:	88 0f       	add	r24, r24
    27ae:	08 f0       	brcs	.+2      	; 0x27b2 <__addsf3x+0x9e>
    27b0:	99 27       	eor	r25, r25
    27b2:	ee 0f       	add	r30, r30
    27b4:	97 95       	ror	r25
    27b6:	87 95       	ror	r24
    27b8:	08 95       	ret

000027ba <__cmpsf2>:
    27ba:	d9 d0       	rcall	.+434    	; 0x296e <__fp_cmp>
    27bc:	08 f4       	brcc	.+2      	; 0x27c0 <__cmpsf2+0x6>
    27be:	81 e0       	ldi	r24, 0x01	; 1
    27c0:	08 95       	ret

000027c2 <__divsf3>:
    27c2:	0c d0       	rcall	.+24     	; 0x27dc <__divsf3x>
    27c4:	0f c1       	rjmp	.+542    	; 0x29e4 <__fp_round>
    27c6:	07 d1       	rcall	.+526    	; 0x29d6 <__fp_pscB>
    27c8:	40 f0       	brcs	.+16     	; 0x27da <__divsf3+0x18>
    27ca:	fe d0       	rcall	.+508    	; 0x29c8 <__fp_pscA>
    27cc:	30 f0       	brcs	.+12     	; 0x27da <__divsf3+0x18>
    27ce:	21 f4       	brne	.+8      	; 0x27d8 <__divsf3+0x16>
    27d0:	5f 3f       	cpi	r21, 0xFF	; 255
    27d2:	19 f0       	breq	.+6      	; 0x27da <__divsf3+0x18>
    27d4:	f0 c0       	rjmp	.+480    	; 0x29b6 <__fp_inf>
    27d6:	51 11       	cpse	r21, r1
    27d8:	39 c1       	rjmp	.+626    	; 0x2a4c <__fp_szero>
    27da:	f3 c0       	rjmp	.+486    	; 0x29c2 <__fp_nan>

000027dc <__divsf3x>:
    27dc:	14 d1       	rcall	.+552    	; 0x2a06 <__fp_split3>
    27de:	98 f3       	brcs	.-26     	; 0x27c6 <__divsf3+0x4>

000027e0 <__divsf3_pse>:
    27e0:	99 23       	and	r25, r25
    27e2:	c9 f3       	breq	.-14     	; 0x27d6 <__divsf3+0x14>
    27e4:	55 23       	and	r21, r21
    27e6:	b1 f3       	breq	.-20     	; 0x27d4 <__divsf3+0x12>
    27e8:	95 1b       	sub	r25, r21
    27ea:	55 0b       	sbc	r21, r21
    27ec:	bb 27       	eor	r27, r27
    27ee:	aa 27       	eor	r26, r26
    27f0:	62 17       	cp	r22, r18
    27f2:	73 07       	cpc	r23, r19
    27f4:	84 07       	cpc	r24, r20
    27f6:	38 f0       	brcs	.+14     	; 0x2806 <__divsf3_pse+0x26>
    27f8:	9f 5f       	subi	r25, 0xFF	; 255
    27fa:	5f 4f       	sbci	r21, 0xFF	; 255
    27fc:	22 0f       	add	r18, r18
    27fe:	33 1f       	adc	r19, r19
    2800:	44 1f       	adc	r20, r20
    2802:	aa 1f       	adc	r26, r26
    2804:	a9 f3       	breq	.-22     	; 0x27f0 <__divsf3_pse+0x10>
    2806:	33 d0       	rcall	.+102    	; 0x286e <__divsf3_pse+0x8e>
    2808:	0e 2e       	mov	r0, r30
    280a:	3a f0       	brmi	.+14     	; 0x281a <__divsf3_pse+0x3a>
    280c:	e0 e8       	ldi	r30, 0x80	; 128
    280e:	30 d0       	rcall	.+96     	; 0x2870 <__divsf3_pse+0x90>
    2810:	91 50       	subi	r25, 0x01	; 1
    2812:	50 40       	sbci	r21, 0x00	; 0
    2814:	e6 95       	lsr	r30
    2816:	00 1c       	adc	r0, r0
    2818:	ca f7       	brpl	.-14     	; 0x280c <__divsf3_pse+0x2c>
    281a:	29 d0       	rcall	.+82     	; 0x286e <__divsf3_pse+0x8e>
    281c:	fe 2f       	mov	r31, r30
    281e:	27 d0       	rcall	.+78     	; 0x286e <__divsf3_pse+0x8e>
    2820:	66 0f       	add	r22, r22
    2822:	77 1f       	adc	r23, r23
    2824:	88 1f       	adc	r24, r24
    2826:	bb 1f       	adc	r27, r27
    2828:	26 17       	cp	r18, r22
    282a:	37 07       	cpc	r19, r23
    282c:	48 07       	cpc	r20, r24
    282e:	ab 07       	cpc	r26, r27
    2830:	b0 e8       	ldi	r27, 0x80	; 128
    2832:	09 f0       	breq	.+2      	; 0x2836 <__divsf3_pse+0x56>
    2834:	bb 0b       	sbc	r27, r27
    2836:	80 2d       	mov	r24, r0
    2838:	bf 01       	movw	r22, r30
    283a:	ff 27       	eor	r31, r31
    283c:	93 58       	subi	r25, 0x83	; 131
    283e:	5f 4f       	sbci	r21, 0xFF	; 255
    2840:	2a f0       	brmi	.+10     	; 0x284c <__divsf3_pse+0x6c>
    2842:	9e 3f       	cpi	r25, 0xFE	; 254
    2844:	51 05       	cpc	r21, r1
    2846:	68 f0       	brcs	.+26     	; 0x2862 <__divsf3_pse+0x82>
    2848:	b6 c0       	rjmp	.+364    	; 0x29b6 <__fp_inf>
    284a:	00 c1       	rjmp	.+512    	; 0x2a4c <__fp_szero>
    284c:	5f 3f       	cpi	r21, 0xFF	; 255
    284e:	ec f3       	brlt	.-6      	; 0x284a <__divsf3_pse+0x6a>
    2850:	98 3e       	cpi	r25, 0xE8	; 232
    2852:	dc f3       	brlt	.-10     	; 0x284a <__divsf3_pse+0x6a>
    2854:	86 95       	lsr	r24
    2856:	77 95       	ror	r23
    2858:	67 95       	ror	r22
    285a:	b7 95       	ror	r27
    285c:	f7 95       	ror	r31
    285e:	9f 5f       	subi	r25, 0xFF	; 255
    2860:	c9 f7       	brne	.-14     	; 0x2854 <__divsf3_pse+0x74>
    2862:	88 0f       	add	r24, r24
    2864:	91 1d       	adc	r25, r1
    2866:	96 95       	lsr	r25
    2868:	87 95       	ror	r24
    286a:	97 f9       	bld	r25, 7
    286c:	08 95       	ret
    286e:	e1 e0       	ldi	r30, 0x01	; 1
    2870:	66 0f       	add	r22, r22
    2872:	77 1f       	adc	r23, r23
    2874:	88 1f       	adc	r24, r24
    2876:	bb 1f       	adc	r27, r27
    2878:	62 17       	cp	r22, r18
    287a:	73 07       	cpc	r23, r19
    287c:	84 07       	cpc	r24, r20
    287e:	ba 07       	cpc	r27, r26
    2880:	20 f0       	brcs	.+8      	; 0x288a <__divsf3_pse+0xaa>
    2882:	62 1b       	sub	r22, r18
    2884:	73 0b       	sbc	r23, r19
    2886:	84 0b       	sbc	r24, r20
    2888:	ba 0b       	sbc	r27, r26
    288a:	ee 1f       	adc	r30, r30
    288c:	88 f7       	brcc	.-30     	; 0x2870 <__divsf3_pse+0x90>
    288e:	e0 95       	com	r30
    2890:	08 95       	ret

00002892 <__fixsfsi>:
    2892:	04 d0       	rcall	.+8      	; 0x289c <__fixunssfsi>
    2894:	68 94       	set
    2896:	b1 11       	cpse	r27, r1
    2898:	d9 c0       	rjmp	.+434    	; 0x2a4c <__fp_szero>
    289a:	08 95       	ret

0000289c <__fixunssfsi>:
    289c:	bc d0       	rcall	.+376    	; 0x2a16 <__fp_splitA>
    289e:	88 f0       	brcs	.+34     	; 0x28c2 <__fixunssfsi+0x26>
    28a0:	9f 57       	subi	r25, 0x7F	; 127
    28a2:	90 f0       	brcs	.+36     	; 0x28c8 <__fixunssfsi+0x2c>
    28a4:	b9 2f       	mov	r27, r25
    28a6:	99 27       	eor	r25, r25
    28a8:	b7 51       	subi	r27, 0x17	; 23
    28aa:	a0 f0       	brcs	.+40     	; 0x28d4 <__fixunssfsi+0x38>
    28ac:	d1 f0       	breq	.+52     	; 0x28e2 <__fixunssfsi+0x46>
    28ae:	66 0f       	add	r22, r22
    28b0:	77 1f       	adc	r23, r23
    28b2:	88 1f       	adc	r24, r24
    28b4:	99 1f       	adc	r25, r25
    28b6:	1a f0       	brmi	.+6      	; 0x28be <__fixunssfsi+0x22>
    28b8:	ba 95       	dec	r27
    28ba:	c9 f7       	brne	.-14     	; 0x28ae <__fixunssfsi+0x12>
    28bc:	12 c0       	rjmp	.+36     	; 0x28e2 <__fixunssfsi+0x46>
    28be:	b1 30       	cpi	r27, 0x01	; 1
    28c0:	81 f0       	breq	.+32     	; 0x28e2 <__fixunssfsi+0x46>
    28c2:	c3 d0       	rcall	.+390    	; 0x2a4a <__fp_zero>
    28c4:	b1 e0       	ldi	r27, 0x01	; 1
    28c6:	08 95       	ret
    28c8:	c0 c0       	rjmp	.+384    	; 0x2a4a <__fp_zero>
    28ca:	67 2f       	mov	r22, r23
    28cc:	78 2f       	mov	r23, r24
    28ce:	88 27       	eor	r24, r24
    28d0:	b8 5f       	subi	r27, 0xF8	; 248
    28d2:	39 f0       	breq	.+14     	; 0x28e2 <__fixunssfsi+0x46>
    28d4:	b9 3f       	cpi	r27, 0xF9	; 249
    28d6:	cc f3       	brlt	.-14     	; 0x28ca <__fixunssfsi+0x2e>
    28d8:	86 95       	lsr	r24
    28da:	77 95       	ror	r23
    28dc:	67 95       	ror	r22
    28de:	b3 95       	inc	r27
    28e0:	d9 f7       	brne	.-10     	; 0x28d8 <__fixunssfsi+0x3c>
    28e2:	3e f4       	brtc	.+14     	; 0x28f2 <__fixunssfsi+0x56>
    28e4:	90 95       	com	r25
    28e6:	80 95       	com	r24
    28e8:	70 95       	com	r23
    28ea:	61 95       	neg	r22
    28ec:	7f 4f       	sbci	r23, 0xFF	; 255
    28ee:	8f 4f       	sbci	r24, 0xFF	; 255
    28f0:	9f 4f       	sbci	r25, 0xFF	; 255
    28f2:	08 95       	ret

000028f4 <__floatunsisf>:
    28f4:	e8 94       	clt
    28f6:	09 c0       	rjmp	.+18     	; 0x290a <__floatsisf+0x12>

000028f8 <__floatsisf>:
    28f8:	97 fb       	bst	r25, 7
    28fa:	3e f4       	brtc	.+14     	; 0x290a <__floatsisf+0x12>
    28fc:	90 95       	com	r25
    28fe:	80 95       	com	r24
    2900:	70 95       	com	r23
    2902:	61 95       	neg	r22
    2904:	7f 4f       	sbci	r23, 0xFF	; 255
    2906:	8f 4f       	sbci	r24, 0xFF	; 255
    2908:	9f 4f       	sbci	r25, 0xFF	; 255
    290a:	99 23       	and	r25, r25
    290c:	a9 f0       	breq	.+42     	; 0x2938 <__floatsisf+0x40>
    290e:	f9 2f       	mov	r31, r25
    2910:	96 e9       	ldi	r25, 0x96	; 150
    2912:	bb 27       	eor	r27, r27
    2914:	93 95       	inc	r25
    2916:	f6 95       	lsr	r31
    2918:	87 95       	ror	r24
    291a:	77 95       	ror	r23
    291c:	67 95       	ror	r22
    291e:	b7 95       	ror	r27
    2920:	f1 11       	cpse	r31, r1
    2922:	f8 cf       	rjmp	.-16     	; 0x2914 <__floatsisf+0x1c>
    2924:	fa f4       	brpl	.+62     	; 0x2964 <__floatsisf+0x6c>
    2926:	bb 0f       	add	r27, r27
    2928:	11 f4       	brne	.+4      	; 0x292e <__floatsisf+0x36>
    292a:	60 ff       	sbrs	r22, 0
    292c:	1b c0       	rjmp	.+54     	; 0x2964 <__floatsisf+0x6c>
    292e:	6f 5f       	subi	r22, 0xFF	; 255
    2930:	7f 4f       	sbci	r23, 0xFF	; 255
    2932:	8f 4f       	sbci	r24, 0xFF	; 255
    2934:	9f 4f       	sbci	r25, 0xFF	; 255
    2936:	16 c0       	rjmp	.+44     	; 0x2964 <__floatsisf+0x6c>
    2938:	88 23       	and	r24, r24
    293a:	11 f0       	breq	.+4      	; 0x2940 <__floatsisf+0x48>
    293c:	96 e9       	ldi	r25, 0x96	; 150
    293e:	11 c0       	rjmp	.+34     	; 0x2962 <__floatsisf+0x6a>
    2940:	77 23       	and	r23, r23
    2942:	21 f0       	breq	.+8      	; 0x294c <__floatsisf+0x54>
    2944:	9e e8       	ldi	r25, 0x8E	; 142
    2946:	87 2f       	mov	r24, r23
    2948:	76 2f       	mov	r23, r22
    294a:	05 c0       	rjmp	.+10     	; 0x2956 <__floatsisf+0x5e>
    294c:	66 23       	and	r22, r22
    294e:	71 f0       	breq	.+28     	; 0x296c <__floatsisf+0x74>
    2950:	96 e8       	ldi	r25, 0x86	; 134
    2952:	86 2f       	mov	r24, r22
    2954:	70 e0       	ldi	r23, 0x00	; 0
    2956:	60 e0       	ldi	r22, 0x00	; 0
    2958:	2a f0       	brmi	.+10     	; 0x2964 <__floatsisf+0x6c>
    295a:	9a 95       	dec	r25
    295c:	66 0f       	add	r22, r22
    295e:	77 1f       	adc	r23, r23
    2960:	88 1f       	adc	r24, r24
    2962:	da f7       	brpl	.-10     	; 0x295a <__floatsisf+0x62>
    2964:	88 0f       	add	r24, r24
    2966:	96 95       	lsr	r25
    2968:	87 95       	ror	r24
    296a:	97 f9       	bld	r25, 7
    296c:	08 95       	ret

0000296e <__fp_cmp>:
    296e:	99 0f       	add	r25, r25
    2970:	00 08       	sbc	r0, r0
    2972:	55 0f       	add	r21, r21
    2974:	aa 0b       	sbc	r26, r26
    2976:	e0 e8       	ldi	r30, 0x80	; 128
    2978:	fe ef       	ldi	r31, 0xFE	; 254
    297a:	16 16       	cp	r1, r22
    297c:	17 06       	cpc	r1, r23
    297e:	e8 07       	cpc	r30, r24
    2980:	f9 07       	cpc	r31, r25
    2982:	c0 f0       	brcs	.+48     	; 0x29b4 <__fp_cmp+0x46>
    2984:	12 16       	cp	r1, r18
    2986:	13 06       	cpc	r1, r19
    2988:	e4 07       	cpc	r30, r20
    298a:	f5 07       	cpc	r31, r21
    298c:	98 f0       	brcs	.+38     	; 0x29b4 <__fp_cmp+0x46>
    298e:	62 1b       	sub	r22, r18
    2990:	73 0b       	sbc	r23, r19
    2992:	84 0b       	sbc	r24, r20
    2994:	95 0b       	sbc	r25, r21
    2996:	39 f4       	brne	.+14     	; 0x29a6 <__fp_cmp+0x38>
    2998:	0a 26       	eor	r0, r26
    299a:	61 f0       	breq	.+24     	; 0x29b4 <__fp_cmp+0x46>
    299c:	23 2b       	or	r18, r19
    299e:	24 2b       	or	r18, r20
    29a0:	25 2b       	or	r18, r21
    29a2:	21 f4       	brne	.+8      	; 0x29ac <__fp_cmp+0x3e>
    29a4:	08 95       	ret
    29a6:	0a 26       	eor	r0, r26
    29a8:	09 f4       	brne	.+2      	; 0x29ac <__fp_cmp+0x3e>
    29aa:	a1 40       	sbci	r26, 0x01	; 1
    29ac:	a6 95       	lsr	r26
    29ae:	8f ef       	ldi	r24, 0xFF	; 255
    29b0:	81 1d       	adc	r24, r1
    29b2:	81 1d       	adc	r24, r1
    29b4:	08 95       	ret

000029b6 <__fp_inf>:
    29b6:	97 f9       	bld	r25, 7
    29b8:	9f 67       	ori	r25, 0x7F	; 127
    29ba:	80 e8       	ldi	r24, 0x80	; 128
    29bc:	70 e0       	ldi	r23, 0x00	; 0
    29be:	60 e0       	ldi	r22, 0x00	; 0
    29c0:	08 95       	ret

000029c2 <__fp_nan>:
    29c2:	9f ef       	ldi	r25, 0xFF	; 255
    29c4:	80 ec       	ldi	r24, 0xC0	; 192
    29c6:	08 95       	ret

000029c8 <__fp_pscA>:
    29c8:	00 24       	eor	r0, r0
    29ca:	0a 94       	dec	r0
    29cc:	16 16       	cp	r1, r22
    29ce:	17 06       	cpc	r1, r23
    29d0:	18 06       	cpc	r1, r24
    29d2:	09 06       	cpc	r0, r25
    29d4:	08 95       	ret

000029d6 <__fp_pscB>:
    29d6:	00 24       	eor	r0, r0
    29d8:	0a 94       	dec	r0
    29da:	12 16       	cp	r1, r18
    29dc:	13 06       	cpc	r1, r19
    29de:	14 06       	cpc	r1, r20
    29e0:	05 06       	cpc	r0, r21
    29e2:	08 95       	ret

000029e4 <__fp_round>:
    29e4:	09 2e       	mov	r0, r25
    29e6:	03 94       	inc	r0
    29e8:	00 0c       	add	r0, r0
    29ea:	11 f4       	brne	.+4      	; 0x29f0 <__fp_round+0xc>
    29ec:	88 23       	and	r24, r24
    29ee:	52 f0       	brmi	.+20     	; 0x2a04 <__fp_round+0x20>
    29f0:	bb 0f       	add	r27, r27
    29f2:	40 f4       	brcc	.+16     	; 0x2a04 <__fp_round+0x20>
    29f4:	bf 2b       	or	r27, r31
    29f6:	11 f4       	brne	.+4      	; 0x29fc <__fp_round+0x18>
    29f8:	60 ff       	sbrs	r22, 0
    29fa:	04 c0       	rjmp	.+8      	; 0x2a04 <__fp_round+0x20>
    29fc:	6f 5f       	subi	r22, 0xFF	; 255
    29fe:	7f 4f       	sbci	r23, 0xFF	; 255
    2a00:	8f 4f       	sbci	r24, 0xFF	; 255
    2a02:	9f 4f       	sbci	r25, 0xFF	; 255
    2a04:	08 95       	ret

00002a06 <__fp_split3>:
    2a06:	57 fd       	sbrc	r21, 7
    2a08:	90 58       	subi	r25, 0x80	; 128
    2a0a:	44 0f       	add	r20, r20
    2a0c:	55 1f       	adc	r21, r21
    2a0e:	59 f0       	breq	.+22     	; 0x2a26 <__fp_splitA+0x10>
    2a10:	5f 3f       	cpi	r21, 0xFF	; 255
    2a12:	71 f0       	breq	.+28     	; 0x2a30 <__fp_splitA+0x1a>
    2a14:	47 95       	ror	r20

00002a16 <__fp_splitA>:
    2a16:	88 0f       	add	r24, r24
    2a18:	97 fb       	bst	r25, 7
    2a1a:	99 1f       	adc	r25, r25
    2a1c:	61 f0       	breq	.+24     	; 0x2a36 <__fp_splitA+0x20>
    2a1e:	9f 3f       	cpi	r25, 0xFF	; 255
    2a20:	79 f0       	breq	.+30     	; 0x2a40 <__fp_splitA+0x2a>
    2a22:	87 95       	ror	r24
    2a24:	08 95       	ret
    2a26:	12 16       	cp	r1, r18
    2a28:	13 06       	cpc	r1, r19
    2a2a:	14 06       	cpc	r1, r20
    2a2c:	55 1f       	adc	r21, r21
    2a2e:	f2 cf       	rjmp	.-28     	; 0x2a14 <__fp_split3+0xe>
    2a30:	46 95       	lsr	r20
    2a32:	f1 df       	rcall	.-30     	; 0x2a16 <__fp_splitA>
    2a34:	08 c0       	rjmp	.+16     	; 0x2a46 <__fp_splitA+0x30>
    2a36:	16 16       	cp	r1, r22
    2a38:	17 06       	cpc	r1, r23
    2a3a:	18 06       	cpc	r1, r24
    2a3c:	99 1f       	adc	r25, r25
    2a3e:	f1 cf       	rjmp	.-30     	; 0x2a22 <__fp_splitA+0xc>
    2a40:	86 95       	lsr	r24
    2a42:	71 05       	cpc	r23, r1
    2a44:	61 05       	cpc	r22, r1
    2a46:	08 94       	sec
    2a48:	08 95       	ret

00002a4a <__fp_zero>:
    2a4a:	e8 94       	clt

00002a4c <__fp_szero>:
    2a4c:	bb 27       	eor	r27, r27
    2a4e:	66 27       	eor	r22, r22
    2a50:	77 27       	eor	r23, r23
    2a52:	cb 01       	movw	r24, r22
    2a54:	97 f9       	bld	r25, 7
    2a56:	08 95       	ret

00002a58 <__gesf2>:
    2a58:	8a df       	rcall	.-236    	; 0x296e <__fp_cmp>
    2a5a:	08 f4       	brcc	.+2      	; 0x2a5e <__gesf2+0x6>
    2a5c:	8f ef       	ldi	r24, 0xFF	; 255
    2a5e:	08 95       	ret

00002a60 <__mulsf3>:
    2a60:	0b d0       	rcall	.+22     	; 0x2a78 <__mulsf3x>
    2a62:	c0 cf       	rjmp	.-128    	; 0x29e4 <__fp_round>
    2a64:	b1 df       	rcall	.-158    	; 0x29c8 <__fp_pscA>
    2a66:	28 f0       	brcs	.+10     	; 0x2a72 <__mulsf3+0x12>
    2a68:	b6 df       	rcall	.-148    	; 0x29d6 <__fp_pscB>
    2a6a:	18 f0       	brcs	.+6      	; 0x2a72 <__mulsf3+0x12>
    2a6c:	95 23       	and	r25, r21
    2a6e:	09 f0       	breq	.+2      	; 0x2a72 <__mulsf3+0x12>
    2a70:	a2 cf       	rjmp	.-188    	; 0x29b6 <__fp_inf>
    2a72:	a7 cf       	rjmp	.-178    	; 0x29c2 <__fp_nan>
    2a74:	11 24       	eor	r1, r1
    2a76:	ea cf       	rjmp	.-44     	; 0x2a4c <__fp_szero>

00002a78 <__mulsf3x>:
    2a78:	c6 df       	rcall	.-116    	; 0x2a06 <__fp_split3>
    2a7a:	a0 f3       	brcs	.-24     	; 0x2a64 <__mulsf3+0x4>

00002a7c <__mulsf3_pse>:
    2a7c:	95 9f       	mul	r25, r21
    2a7e:	d1 f3       	breq	.-12     	; 0x2a74 <__mulsf3+0x14>
    2a80:	95 0f       	add	r25, r21
    2a82:	50 e0       	ldi	r21, 0x00	; 0
    2a84:	55 1f       	adc	r21, r21
    2a86:	62 9f       	mul	r22, r18
    2a88:	f0 01       	movw	r30, r0
    2a8a:	72 9f       	mul	r23, r18
    2a8c:	bb 27       	eor	r27, r27
    2a8e:	f0 0d       	add	r31, r0
    2a90:	b1 1d       	adc	r27, r1
    2a92:	63 9f       	mul	r22, r19
    2a94:	aa 27       	eor	r26, r26
    2a96:	f0 0d       	add	r31, r0
    2a98:	b1 1d       	adc	r27, r1
    2a9a:	aa 1f       	adc	r26, r26
    2a9c:	64 9f       	mul	r22, r20
    2a9e:	66 27       	eor	r22, r22
    2aa0:	b0 0d       	add	r27, r0
    2aa2:	a1 1d       	adc	r26, r1
    2aa4:	66 1f       	adc	r22, r22
    2aa6:	82 9f       	mul	r24, r18
    2aa8:	22 27       	eor	r18, r18
    2aaa:	b0 0d       	add	r27, r0
    2aac:	a1 1d       	adc	r26, r1
    2aae:	62 1f       	adc	r22, r18
    2ab0:	73 9f       	mul	r23, r19
    2ab2:	b0 0d       	add	r27, r0
    2ab4:	a1 1d       	adc	r26, r1
    2ab6:	62 1f       	adc	r22, r18
    2ab8:	83 9f       	mul	r24, r19
    2aba:	a0 0d       	add	r26, r0
    2abc:	61 1d       	adc	r22, r1
    2abe:	22 1f       	adc	r18, r18
    2ac0:	74 9f       	mul	r23, r20
    2ac2:	33 27       	eor	r19, r19
    2ac4:	a0 0d       	add	r26, r0
    2ac6:	61 1d       	adc	r22, r1
    2ac8:	23 1f       	adc	r18, r19
    2aca:	84 9f       	mul	r24, r20
    2acc:	60 0d       	add	r22, r0
    2ace:	21 1d       	adc	r18, r1
    2ad0:	82 2f       	mov	r24, r18
    2ad2:	76 2f       	mov	r23, r22
    2ad4:	6a 2f       	mov	r22, r26
    2ad6:	11 24       	eor	r1, r1
    2ad8:	9f 57       	subi	r25, 0x7F	; 127
    2ada:	50 40       	sbci	r21, 0x00	; 0
    2adc:	8a f0       	brmi	.+34     	; 0x2b00 <__mulsf3_pse+0x84>
    2ade:	e1 f0       	breq	.+56     	; 0x2b18 <__mulsf3_pse+0x9c>
    2ae0:	88 23       	and	r24, r24
    2ae2:	4a f0       	brmi	.+18     	; 0x2af6 <__mulsf3_pse+0x7a>
    2ae4:	ee 0f       	add	r30, r30
    2ae6:	ff 1f       	adc	r31, r31
    2ae8:	bb 1f       	adc	r27, r27
    2aea:	66 1f       	adc	r22, r22
    2aec:	77 1f       	adc	r23, r23
    2aee:	88 1f       	adc	r24, r24
    2af0:	91 50       	subi	r25, 0x01	; 1
    2af2:	50 40       	sbci	r21, 0x00	; 0
    2af4:	a9 f7       	brne	.-22     	; 0x2ae0 <__mulsf3_pse+0x64>
    2af6:	9e 3f       	cpi	r25, 0xFE	; 254
    2af8:	51 05       	cpc	r21, r1
    2afa:	70 f0       	brcs	.+28     	; 0x2b18 <__mulsf3_pse+0x9c>
    2afc:	5c cf       	rjmp	.-328    	; 0x29b6 <__fp_inf>
    2afe:	a6 cf       	rjmp	.-180    	; 0x2a4c <__fp_szero>
    2b00:	5f 3f       	cpi	r21, 0xFF	; 255
    2b02:	ec f3       	brlt	.-6      	; 0x2afe <__mulsf3_pse+0x82>
    2b04:	98 3e       	cpi	r25, 0xE8	; 232
    2b06:	dc f3       	brlt	.-10     	; 0x2afe <__mulsf3_pse+0x82>
    2b08:	86 95       	lsr	r24
    2b0a:	77 95       	ror	r23
    2b0c:	67 95       	ror	r22
    2b0e:	b7 95       	ror	r27
    2b10:	f7 95       	ror	r31
    2b12:	e7 95       	ror	r30
    2b14:	9f 5f       	subi	r25, 0xFF	; 255
    2b16:	c1 f7       	brne	.-16     	; 0x2b08 <__mulsf3_pse+0x8c>
    2b18:	fe 2b       	or	r31, r30
    2b1a:	88 0f       	add	r24, r24
    2b1c:	91 1d       	adc	r25, r1
    2b1e:	96 95       	lsr	r25
    2b20:	87 95       	ror	r24
    2b22:	97 f9       	bld	r25, 7
    2b24:	08 95       	ret

00002b26 <round>:
    2b26:	77 df       	rcall	.-274    	; 0x2a16 <__fp_splitA>
    2b28:	e0 f0       	brcs	.+56     	; 0x2b62 <round+0x3c>
    2b2a:	9e 37       	cpi	r25, 0x7E	; 126
    2b2c:	d8 f0       	brcs	.+54     	; 0x2b64 <round+0x3e>
    2b2e:	96 39       	cpi	r25, 0x96	; 150
    2b30:	b8 f4       	brcc	.+46     	; 0x2b60 <round+0x3a>
    2b32:	9e 38       	cpi	r25, 0x8E	; 142
    2b34:	48 f4       	brcc	.+18     	; 0x2b48 <round+0x22>
    2b36:	67 2f       	mov	r22, r23
    2b38:	78 2f       	mov	r23, r24
    2b3a:	88 27       	eor	r24, r24
    2b3c:	98 5f       	subi	r25, 0xF8	; 248
    2b3e:	f9 cf       	rjmp	.-14     	; 0x2b32 <round+0xc>
    2b40:	86 95       	lsr	r24
    2b42:	77 95       	ror	r23
    2b44:	67 95       	ror	r22
    2b46:	93 95       	inc	r25
    2b48:	95 39       	cpi	r25, 0x95	; 149
    2b4a:	d0 f3       	brcs	.-12     	; 0x2b40 <round+0x1a>
    2b4c:	b6 2f       	mov	r27, r22
    2b4e:	b1 70       	andi	r27, 0x01	; 1
    2b50:	6b 0f       	add	r22, r27
    2b52:	71 1d       	adc	r23, r1
    2b54:	81 1d       	adc	r24, r1
    2b56:	20 f4       	brcc	.+8      	; 0x2b60 <round+0x3a>
    2b58:	87 95       	ror	r24
    2b5a:	77 95       	ror	r23
    2b5c:	67 95       	ror	r22
    2b5e:	93 95       	inc	r25
    2b60:	02 c0       	rjmp	.+4      	; 0x2b66 <__fp_mintl>
    2b62:	1c c0       	rjmp	.+56     	; 0x2b9c <__fp_mpack>
    2b64:	73 cf       	rjmp	.-282    	; 0x2a4c <__fp_szero>

00002b66 <__fp_mintl>:
    2b66:	88 23       	and	r24, r24
    2b68:	71 f4       	brne	.+28     	; 0x2b86 <__fp_mintl+0x20>
    2b6a:	77 23       	and	r23, r23
    2b6c:	21 f0       	breq	.+8      	; 0x2b76 <__fp_mintl+0x10>
    2b6e:	98 50       	subi	r25, 0x08	; 8
    2b70:	87 2b       	or	r24, r23
    2b72:	76 2f       	mov	r23, r22
    2b74:	07 c0       	rjmp	.+14     	; 0x2b84 <__fp_mintl+0x1e>
    2b76:	66 23       	and	r22, r22
    2b78:	11 f4       	brne	.+4      	; 0x2b7e <__fp_mintl+0x18>
    2b7a:	99 27       	eor	r25, r25
    2b7c:	0d c0       	rjmp	.+26     	; 0x2b98 <__fp_mintl+0x32>
    2b7e:	90 51       	subi	r25, 0x10	; 16
    2b80:	86 2b       	or	r24, r22
    2b82:	70 e0       	ldi	r23, 0x00	; 0
    2b84:	60 e0       	ldi	r22, 0x00	; 0
    2b86:	2a f0       	brmi	.+10     	; 0x2b92 <__fp_mintl+0x2c>
    2b88:	9a 95       	dec	r25
    2b8a:	66 0f       	add	r22, r22
    2b8c:	77 1f       	adc	r23, r23
    2b8e:	88 1f       	adc	r24, r24
    2b90:	da f7       	brpl	.-10     	; 0x2b88 <__fp_mintl+0x22>
    2b92:	88 0f       	add	r24, r24
    2b94:	96 95       	lsr	r25
    2b96:	87 95       	ror	r24
    2b98:	97 f9       	bld	r25, 7
    2b9a:	08 95       	ret

00002b9c <__fp_mpack>:
    2b9c:	9f 3f       	cpi	r25, 0xFF	; 255
    2b9e:	31 f0       	breq	.+12     	; 0x2bac <__fp_mpack_finite+0xc>

00002ba0 <__fp_mpack_finite>:
    2ba0:	91 50       	subi	r25, 0x01	; 1
    2ba2:	20 f4       	brcc	.+8      	; 0x2bac <__fp_mpack_finite+0xc>
    2ba4:	87 95       	ror	r24
    2ba6:	77 95       	ror	r23
    2ba8:	67 95       	ror	r22
    2baa:	b7 95       	ror	r27
    2bac:	88 0f       	add	r24, r24
    2bae:	91 1d       	adc	r25, r1
    2bb0:	96 95       	lsr	r25
    2bb2:	87 95       	ror	r24
    2bb4:	97 f9       	bld	r25, 7
    2bb6:	08 95       	ret

00002bb8 <eeprom_read_byte>:
    2bb8:	f9 99       	sbic	0x1f, 1	; 31
    2bba:	fe cf       	rjmp	.-4      	; 0x2bb8 <eeprom_read_byte>
    2bbc:	92 bd       	out	0x22, r25	; 34
    2bbe:	81 bd       	out	0x21, r24	; 33
    2bc0:	f8 9a       	sbi	0x1f, 0	; 31
    2bc2:	99 27       	eor	r25, r25
    2bc4:	80 b5       	in	r24, 0x20	; 32
    2bc6:	08 95       	ret

00002bc8 <eeprom_update_byte>:
    2bc8:	26 2f       	mov	r18, r22

00002bca <eeprom_update_r18>:
    2bca:	f9 99       	sbic	0x1f, 1	; 31
    2bcc:	fe cf       	rjmp	.-4      	; 0x2bca <eeprom_update_r18>
    2bce:	92 bd       	out	0x22, r25	; 34
    2bd0:	81 bd       	out	0x21, r24	; 33
    2bd2:	f8 9a       	sbi	0x1f, 0	; 31
    2bd4:	01 97       	sbiw	r24, 0x01	; 1
    2bd6:	00 b4       	in	r0, 0x20	; 32
    2bd8:	02 16       	cp	r0, r18
    2bda:	31 f0       	breq	.+12     	; 0x2be8 <eeprom_update_r18+0x1e>
    2bdc:	20 bd       	out	0x20, r18	; 32
    2bde:	0f b6       	in	r0, 0x3f	; 63
    2be0:	f8 94       	cli
    2be2:	fa 9a       	sbi	0x1f, 2	; 31
    2be4:	f9 9a       	sbi	0x1f, 1	; 31
    2be6:	0f be       	out	0x3f, r0	; 63
    2be8:	08 95       	ret

00002bea <eeprom_write_byte>:
    2bea:	26 2f       	mov	r18, r22

00002bec <eeprom_write_r18>:
    2bec:	f9 99       	sbic	0x1f, 1	; 31
    2bee:	fe cf       	rjmp	.-4      	; 0x2bec <eeprom_write_r18>
    2bf0:	92 bd       	out	0x22, r25	; 34
    2bf2:	81 bd       	out	0x21, r24	; 33
    2bf4:	20 bd       	out	0x20, r18	; 32
    2bf6:	0f b6       	in	r0, 0x3f	; 63
    2bf8:	f8 94       	cli
    2bfa:	fa 9a       	sbi	0x1f, 2	; 31
    2bfc:	f9 9a       	sbi	0x1f, 1	; 31
    2bfe:	0f be       	out	0x3f, r0	; 63
    2c00:	01 96       	adiw	r24, 0x01	; 1
    2c02:	08 95       	ret

00002c04 <_exit>:
    2c04:	f8 94       	cli

00002c06 <__stop_program>:
    2c06:	ff cf       	rjmp	.-2      	; 0x2c06 <__stop_program>
